
build/bin/melox.bin:     file format elf32-i386


Disassembly of section .text:

00100000 <.text>:
  100000:	02 b0 ad 1b 03 00    	add    0x31bad(%eax),%dh
  100006:	00 00                	add    %al,(%eax)
  100008:	fb                   	sti    
  100009:	4f                   	dec    %edi
  10000a:	52                   	push   %edx
  10000b:	e4                   	.byte 0xe4

Disassembly of section .text:

00100000 <vga_put_char>:
  100000:	53                   	push   %ebx
  100001:	83 ec 04             	sub    $0x4,%esp
  100004:	8b 44 24 0c          	mov    0xc(%esp),%eax
  100008:	88 04 24             	mov    %al,(%esp)
  10000b:	80 3c 24 0a          	cmpb   $0xa,(%esp)
  10000f:	75 1d                	jne    10002e <vga_put_char+0x2e>
  100011:	90                   	nop
  100012:	eb 01                	jmp    100015 <vga_put_char+0x15>
  100014:	90                   	nop
  100015:	c7 05 08 10 10 00 00 	movl   $0x0,0x101008
  10001c:	00 00 00 
  10001f:	a1 04 10 10 00       	mov    0x101004,%eax
  100024:	83 c0 01             	add    $0x1,%eax
  100027:	a3 04 10 10 00       	mov    %eax,0x101004
  10002c:	eb 43                	jmp    100071 <vga_put_char+0x71>
  10002e:	80 3c 24 0d          	cmpb   $0xd,(%esp)
  100032:	75 0c                	jne    100040 <vga_put_char+0x40>
  100034:	c7 05 08 10 10 00 00 	movl   $0x0,0x101008
  10003b:	00 00 00 
  10003e:	eb 31                	jmp    100071 <vga_put_char+0x71>
  100040:	0f b7 05 00 10 10 00 	movzwl 0x101000,%eax
  100047:	0a 04 24             	or     (%esp),%al
  10004a:	89 c1                	mov    %eax,%ecx
  10004c:	8b 1d 00 60 10 00    	mov    0x106000,%ebx
  100052:	8b 15 04 10 10 00    	mov    0x101004,%edx
  100058:	89 d0                	mov    %edx,%eax
  10005a:	c1 e0 02             	shl    $0x2,%eax
  10005d:	01 d0                	add    %edx,%eax
  10005f:	c1 e0 04             	shl    $0x4,%eax
  100062:	89 c2                	mov    %eax,%edx
  100064:	a1 08 10 10 00       	mov    0x101008,%eax
  100069:	01 d0                	add    %edx,%eax
  10006b:	01 d8                	add    %ebx,%eax
  10006d:	89 ca                	mov    %ecx,%edx
  10006f:	88 10                	mov    %dl,(%eax)
  100071:	a1 08 10 10 00       	mov    0x101008,%eax
  100076:	83 c0 01             	add    $0x1,%eax
  100079:	a3 08 10 10 00       	mov    %eax,0x101008
  10007e:	a1 08 10 10 00       	mov    0x101008,%eax
  100083:	83 f8 4f             	cmp    $0x4f,%eax
  100086:	7f 8c                	jg     100014 <vga_put_char+0x14>
  100088:	90                   	nop
  100089:	83 c4 04             	add    $0x4,%esp
  10008c:	5b                   	pop    %ebx
  10008d:	c3                   	ret    

0010008e <vga_set_show>:
  10008e:	83 ec 0c             	sub    $0xc,%esp
  100091:	8b 4c 24 10          	mov    0x10(%esp),%ecx
  100095:	8b 54 24 14          	mov    0x14(%esp),%edx
  100099:	8b 44 24 18          	mov    0x18(%esp),%eax
  10009d:	66 89 4c 24 08       	mov    %cx,0x8(%esp)
  1000a2:	66 89 54 24 04       	mov    %dx,0x4(%esp)
  1000a7:	66 89 04 24          	mov    %ax,(%esp)
  1000ab:	0f b7 44 24 08       	movzwl 0x8(%esp),%eax
  1000b0:	c1 e0 07             	shl    $0x7,%eax
  1000b3:	89 c2                	mov    %eax,%edx
  1000b5:	0f b7 44 24 04       	movzwl 0x4(%esp),%eax
  1000ba:	c1 e0 04             	shl    $0x4,%eax
  1000bd:	09 c2                	or     %eax,%edx
  1000bf:	0f b7 04 24          	movzwl (%esp),%eax
  1000c3:	09 d0                	or     %edx,%eax
  1000c5:	c1 e0 08             	shl    $0x8,%eax
  1000c8:	66 a3 00 10 10 00    	mov    %ax,0x101000
  1000ce:	90                   	nop
  1000cf:	83 c4 0c             	add    $0xc,%esp
  1000d2:	c3                   	ret    

001000d3 <vga_put_str>:
  1000d3:	eb 18                	jmp    1000ed <vga_put_str+0x1a>
  1000d5:	8b 44 24 04          	mov    0x4(%esp),%eax
  1000d9:	0f b6 00             	movzbl (%eax),%eax
  1000dc:	0f be c0             	movsbl %al,%eax
  1000df:	50                   	push   %eax
  1000e0:	e8 1b ff ff ff       	call   100000 <vga_put_char>
  1000e5:	83 c4 04             	add    $0x4,%esp
  1000e8:	83 44 24 04 01       	addl   $0x1,0x4(%esp)
  1000ed:	8b 44 24 04          	mov    0x4(%esp),%eax
  1000f1:	0f b6 00             	movzbl (%eax),%eax
  1000f4:	84 c0                	test   %al,%al
  1000f6:	75 dd                	jne    1000d5 <vga_put_str+0x2>
  1000f8:	90                   	nop
  1000f9:	90                   	nop
  1000fa:	c3                   	ret    

001000fb <vga_clear>:
  1000fb:	83 ec 10             	sub    $0x10,%esp
  1000fe:	c7 44 24 0c 00 00 00 	movl   $0x0,0xc(%esp)
  100105:	00 
  100106:	eb 1a                	jmp    100122 <vga_clear+0x27>
  100108:	0f b7 15 00 10 10 00 	movzwl 0x101000,%edx
  10010f:	8b 0d 00 60 10 00    	mov    0x106000,%ecx
  100115:	8b 44 24 0c          	mov    0xc(%esp),%eax
  100119:	01 c8                	add    %ecx,%eax
  10011b:	88 10                	mov    %dl,(%eax)
  10011d:	83 44 24 0c 01       	addl   $0x1,0xc(%esp)
  100122:	81 7c 24 0c cf 07 00 	cmpl   $0x7cf,0xc(%esp)
  100129:	00 
  10012a:	7e dc                	jle    100108 <vga_clear+0xd>
  10012c:	c7 05 08 10 10 00 00 	movl   $0x0,0x101008
  100133:	00 00 00 
  100136:	c7 05 04 10 10 00 00 	movl   $0x0,0x101004
  10013d:	00 00 00 
  100140:	90                   	nop
  100141:	83 c4 10             	add    $0x10,%esp
  100144:	c3                   	ret    

00100145 <itoa>:
  100145:	83 ec 20             	sub    $0x20,%esp
  100148:	8b 44 24 24          	mov    0x24(%esp),%eax
  10014c:	89 44 24 1c          	mov    %eax,0x1c(%esp)
  100150:	8b 44 24 2c          	mov    0x2c(%esp),%eax
  100154:	89 44 24 10          	mov    %eax,0x10(%esp)
  100158:	c7 44 24 0c 0a 00 00 	movl   $0xa,0xc(%esp)
  10015f:	00 
  100160:	83 7c 24 28 64       	cmpl   $0x64,0x28(%esp)
  100165:	75 26                	jne    10018d <itoa+0x48>
  100167:	83 7c 24 2c 00       	cmpl   $0x0,0x2c(%esp)
  10016c:	79 1f                	jns    10018d <itoa+0x48>
  10016e:	8b 44 24 1c          	mov    0x1c(%esp),%eax
  100172:	8d 50 01             	lea    0x1(%eax),%edx
  100175:	89 54 24 1c          	mov    %edx,0x1c(%esp)
  100179:	c6 00 2d             	movb   $0x2d,(%eax)
  10017c:	83 44 24 24 01       	addl   $0x1,0x24(%esp)
  100181:	8b 44 24 2c          	mov    0x2c(%esp),%eax
  100185:	f7 d8                	neg    %eax
  100187:	89 44 24 10          	mov    %eax,0x10(%esp)
  10018b:	eb 0f                	jmp    10019c <itoa+0x57>
  10018d:	83 7c 24 28 78       	cmpl   $0x78,0x28(%esp)
  100192:	75 08                	jne    10019c <itoa+0x57>
  100194:	c7 44 24 0c 10 00 00 	movl   $0x10,0xc(%esp)
  10019b:	00 
  10019c:	8b 4c 24 0c          	mov    0xc(%esp),%ecx
  1001a0:	8b 44 24 10          	mov    0x10(%esp),%eax
  1001a4:	ba 00 00 00 00       	mov    $0x0,%edx
  1001a9:	f7 f1                	div    %ecx
  1001ab:	89 d0                	mov    %edx,%eax
  1001ad:	89 44 24 08          	mov    %eax,0x8(%esp)
  1001b1:	83 7c 24 08 09       	cmpl   $0x9,0x8(%esp)
  1001b6:	7f 0b                	jg     1001c3 <itoa+0x7e>
  1001b8:	8b 44 24 08          	mov    0x8(%esp),%eax
  1001bc:	83 c0 30             	add    $0x30,%eax
  1001bf:	89 c1                	mov    %eax,%ecx
  1001c1:	eb 09                	jmp    1001cc <itoa+0x87>
  1001c3:	8b 44 24 08          	mov    0x8(%esp),%eax
  1001c7:	83 c0 57             	add    $0x57,%eax
  1001ca:	89 c1                	mov    %eax,%ecx
  1001cc:	8b 44 24 1c          	mov    0x1c(%esp),%eax
  1001d0:	8d 50 01             	lea    0x1(%eax),%edx
  1001d3:	89 54 24 1c          	mov    %edx,0x1c(%esp)
  1001d7:	88 08                	mov    %cl,(%eax)
  1001d9:	8b 4c 24 0c          	mov    0xc(%esp),%ecx
  1001dd:	8b 44 24 10          	mov    0x10(%esp),%eax
  1001e1:	ba 00 00 00 00       	mov    $0x0,%edx
  1001e6:	f7 f1                	div    %ecx
  1001e8:	89 44 24 10          	mov    %eax,0x10(%esp)
  1001ec:	83 7c 24 10 00       	cmpl   $0x0,0x10(%esp)
  1001f1:	75 a9                	jne    10019c <itoa+0x57>
  1001f3:	8b 44 24 1c          	mov    0x1c(%esp),%eax
  1001f7:	c6 00 00             	movb   $0x0,(%eax)
  1001fa:	8b 44 24 24          	mov    0x24(%esp),%eax
  1001fe:	89 44 24 18          	mov    %eax,0x18(%esp)
  100202:	8b 44 24 1c          	mov    0x1c(%esp),%eax
  100206:	83 e8 01             	sub    $0x1,%eax
  100209:	89 44 24 14          	mov    %eax,0x14(%esp)
  10020d:	eb 2d                	jmp    10023c <itoa+0xf7>
  10020f:	8b 44 24 18          	mov    0x18(%esp),%eax
  100213:	0f b6 00             	movzbl (%eax),%eax
  100216:	88 44 24 07          	mov    %al,0x7(%esp)
  10021a:	8b 44 24 14          	mov    0x14(%esp),%eax
  10021e:	0f b6 10             	movzbl (%eax),%edx
  100221:	8b 44 24 18          	mov    0x18(%esp),%eax
  100225:	88 10                	mov    %dl,(%eax)
  100227:	8b 44 24 14          	mov    0x14(%esp),%eax
  10022b:	0f b6 54 24 07       	movzbl 0x7(%esp),%edx
  100230:	88 10                	mov    %dl,(%eax)
  100232:	83 44 24 18 01       	addl   $0x1,0x18(%esp)
  100237:	83 6c 24 14 01       	subl   $0x1,0x14(%esp)
  10023c:	8b 44 24 18          	mov    0x18(%esp),%eax
  100240:	3b 44 24 14          	cmp    0x14(%esp),%eax
  100244:	72 c9                	jb     10020f <itoa+0xca>
  100246:	90                   	nop
  100247:	90                   	nop
  100248:	83 c4 20             	add    $0x20,%esp
  10024b:	c3                   	ret    

0010024c <_kernel_init>:
  10024c:	57                   	push   %edi
  10024d:	56                   	push   %esi
  10024e:	53                   	push   %ebx
  10024f:	83 ec 40             	sub    $0x40,%esp
  100252:	83 ec 04             	sub    $0x4,%esp
  100255:	6a 0f                	push   $0xf
  100257:	6a 00                	push   $0x0
  100259:	6a 00                	push   $0x0
  10025b:	e8 2e fe ff ff       	call   10008e <vga_set_show>
  100260:	83 c4 10             	add    $0x10,%esp
  100263:	e8 93 fe ff ff       	call   1000fb <vga_clear>
  100268:	81 7c 24 50 02 b0 ad 	cmpl   $0x2badb002,0x50(%esp)
  10026f:	2b 
  100270:	74 19                	je     10028b <_kernel_init+0x3f>
  100272:	83 ec 08             	sub    $0x8,%esp
  100275:	ff 74 24 58          	push   0x58(%esp)
  100279:	68 00 70 10 00       	push   $0x107000
  10027e:	e8 20 05 00 00       	call   1007a3 <kprintf>
  100283:	83 c4 10             	add    $0x10,%esp
  100286:	e9 11 05 00 00       	jmp    10079c <_kernel_init+0x550>
  10028b:	8b 44 24 54          	mov    0x54(%esp),%eax
  10028f:	89 44 24 24          	mov    %eax,0x24(%esp)
  100293:	8b 44 24 24          	mov    0x24(%esp),%eax
  100297:	8b 00                	mov    (%eax),%eax
  100299:	83 ec 08             	sub    $0x8,%esp
  10029c:	50                   	push   %eax
  10029d:	68 1c 70 10 00       	push   $0x10701c
  1002a2:	e8 fc 04 00 00       	call   1007a3 <kprintf>
  1002a7:	83 c4 10             	add    $0x10,%esp
  1002aa:	8b 44 24 24          	mov    0x24(%esp),%eax
  1002ae:	8b 00                	mov    (%eax),%eax
  1002b0:	83 e0 01             	and    $0x1,%eax
  1002b3:	85 c0                	test   %eax,%eax
  1002b5:	74 20                	je     1002d7 <_kernel_init+0x8b>
  1002b7:	8b 44 24 24          	mov    0x24(%esp),%eax
  1002bb:	8b 50 08             	mov    0x8(%eax),%edx
  1002be:	8b 44 24 24          	mov    0x24(%esp),%eax
  1002c2:	8b 40 04             	mov    0x4(%eax),%eax
  1002c5:	83 ec 04             	sub    $0x4,%esp
  1002c8:	52                   	push   %edx
  1002c9:	50                   	push   %eax
  1002ca:	68 2c 70 10 00       	push   $0x10702c
  1002cf:	e8 cf 04 00 00       	call   1007a3 <kprintf>
  1002d4:	83 c4 10             	add    $0x10,%esp
  1002d7:	8b 44 24 24          	mov    0x24(%esp),%eax
  1002db:	8b 00                	mov    (%eax),%eax
  1002dd:	83 e0 02             	and    $0x2,%eax
  1002e0:	85 c0                	test   %eax,%eax
  1002e2:	74 18                	je     1002fc <_kernel_init+0xb0>
  1002e4:	8b 44 24 24          	mov    0x24(%esp),%eax
  1002e8:	8b 40 0c             	mov    0xc(%eax),%eax
  1002eb:	83 ec 08             	sub    $0x8,%esp
  1002ee:	50                   	push   %eax
  1002ef:	68 50 70 10 00       	push   $0x107050
  1002f4:	e8 aa 04 00 00       	call   1007a3 <kprintf>
  1002f9:	83 c4 10             	add    $0x10,%esp
  1002fc:	8b 44 24 24          	mov    0x24(%esp),%eax
  100300:	8b 00                	mov    (%eax),%eax
  100302:	83 e0 04             	and    $0x4,%eax
  100305:	85 c0                	test   %eax,%eax
  100307:	74 18                	je     100321 <_kernel_init+0xd5>
  100309:	8b 44 24 24          	mov    0x24(%esp),%eax
  10030d:	8b 40 10             	mov    0x10(%eax),%eax
  100310:	83 ec 08             	sub    $0x8,%esp
  100313:	50                   	push   %eax
  100314:	68 64 70 10 00       	push   $0x107064
  100319:	e8 85 04 00 00       	call   1007a3 <kprintf>
  10031e:	83 c4 10             	add    $0x10,%esp
  100321:	8b 44 24 24          	mov    0x24(%esp),%eax
  100325:	8b 00                	mov    (%eax),%eax
  100327:	83 e0 08             	and    $0x8,%eax
  10032a:	85 c0                	test   %eax,%eax
  10032c:	74 76                	je     1003a4 <_kernel_init+0x158>
  10032e:	8b 44 24 24          	mov    0x24(%esp),%eax
  100332:	8b 40 18             	mov    0x18(%eax),%eax
  100335:	89 c2                	mov    %eax,%edx
  100337:	8b 44 24 24          	mov    0x24(%esp),%eax
  10033b:	8b 40 14             	mov    0x14(%eax),%eax
  10033e:	83 ec 04             	sub    $0x4,%esp
  100341:	52                   	push   %edx
  100342:	50                   	push   %eax
  100343:	68 74 70 10 00       	push   $0x107074
  100348:	e8 56 04 00 00       	call   1007a3 <kprintf>
  10034d:	83 c4 10             	add    $0x10,%esp
  100350:	c7 44 24 38 00 00 00 	movl   $0x0,0x38(%esp)
  100357:	00 
  100358:	8b 44 24 24          	mov    0x24(%esp),%eax
  10035c:	8b 40 18             	mov    0x18(%eax),%eax
  10035f:	89 44 24 3c          	mov    %eax,0x3c(%esp)
  100363:	eb 30                	jmp    100395 <_kernel_init+0x149>
  100365:	8b 44 24 3c          	mov    0x3c(%esp),%eax
  100369:	8b 40 08             	mov    0x8(%eax),%eax
  10036c:	89 c1                	mov    %eax,%ecx
  10036e:	8b 44 24 3c          	mov    0x3c(%esp),%eax
  100372:	8b 50 04             	mov    0x4(%eax),%edx
  100375:	8b 44 24 3c          	mov    0x3c(%esp),%eax
  100379:	8b 00                	mov    (%eax),%eax
  10037b:	51                   	push   %ecx
  10037c:	52                   	push   %edx
  10037d:	50                   	push   %eax
  10037e:	68 98 70 10 00       	push   $0x107098
  100383:	e8 1b 04 00 00       	call   1007a3 <kprintf>
  100388:	83 c4 10             	add    $0x10,%esp
  10038b:	83 44 24 38 01       	addl   $0x1,0x38(%esp)
  100390:	83 44 24 3c 10       	addl   $0x10,0x3c(%esp)
  100395:	8b 44 24 24          	mov    0x24(%esp),%eax
  100399:	8b 50 14             	mov    0x14(%eax),%edx
  10039c:	8b 44 24 38          	mov    0x38(%esp),%eax
  1003a0:	39 c2                	cmp    %eax,%edx
  1003a2:	77 c1                	ja     100365 <_kernel_init+0x119>
  1003a4:	8b 44 24 24          	mov    0x24(%esp),%eax
  1003a8:	8b 00                	mov    (%eax),%eax
  1003aa:	83 e0 10             	and    $0x10,%eax
  1003ad:	85 c0                	test   %eax,%eax
  1003af:	74 22                	je     1003d3 <_kernel_init+0x187>
  1003b1:	8b 44 24 24          	mov    0x24(%esp),%eax
  1003b5:	8b 00                	mov    (%eax),%eax
  1003b7:	83 e0 20             	and    $0x20,%eax
  1003ba:	85 c0                	test   %eax,%eax
  1003bc:	74 15                	je     1003d3 <_kernel_init+0x187>
  1003be:	83 ec 0c             	sub    $0xc,%esp
  1003c1:	68 c9 70 10 00       	push   $0x1070c9
  1003c6:	e8 d8 03 00 00       	call   1007a3 <kprintf>
  1003cb:	83 c4 10             	add    $0x10,%esp
  1003ce:	e9 c9 03 00 00       	jmp    10079c <_kernel_init+0x550>
  1003d3:	8b 44 24 24          	mov    0x24(%esp),%eax
  1003d7:	8b 00                	mov    (%eax),%eax
  1003d9:	83 e0 20             	and    $0x20,%eax
  1003dc:	85 c0                	test   %eax,%eax
  1003de:	74 3a                	je     10041a <_kernel_init+0x1ce>
  1003e0:	8b 44 24 24          	mov    0x24(%esp),%eax
  1003e4:	83 c0 1c             	add    $0x1c,%eax
  1003e7:	89 44 24 20          	mov    %eax,0x20(%esp)
  1003eb:	8b 44 24 20          	mov    0x20(%esp),%eax
  1003ef:	8b 58 0c             	mov    0xc(%eax),%ebx
  1003f2:	8b 44 24 20          	mov    0x20(%esp),%eax
  1003f6:	8b 48 08             	mov    0x8(%eax),%ecx
  1003f9:	8b 44 24 20          	mov    0x20(%esp),%eax
  1003fd:	8b 50 04             	mov    0x4(%eax),%edx
  100400:	8b 44 24 20          	mov    0x20(%esp),%eax
  100404:	8b 00                	mov    (%eax),%eax
  100406:	83 ec 0c             	sub    $0xc,%esp
  100409:	53                   	push   %ebx
  10040a:	51                   	push   %ecx
  10040b:	52                   	push   %edx
  10040c:	50                   	push   %eax
  10040d:	68 e8 70 10 00       	push   $0x1070e8
  100412:	e8 8c 03 00 00       	call   1007a3 <kprintf>
  100417:	83 c4 20             	add    $0x20,%esp
  10041a:	8b 44 24 24          	mov    0x24(%esp),%eax
  10041e:	8b 00                	mov    (%eax),%eax
  100420:	83 e0 40             	and    $0x40,%eax
  100423:	85 c0                	test   %eax,%eax
  100425:	0f 84 97 00 00 00    	je     1004c2 <_kernel_init+0x276>
  10042b:	8b 44 24 24          	mov    0x24(%esp),%eax
  10042f:	8b 50 2c             	mov    0x2c(%eax),%edx
  100432:	8b 44 24 24          	mov    0x24(%esp),%eax
  100436:	8b 40 30             	mov    0x30(%eax),%eax
  100439:	83 ec 04             	sub    $0x4,%esp
  10043c:	52                   	push   %edx
  10043d:	50                   	push   %eax
  10043e:	68 30 71 10 00       	push   $0x107130
  100443:	e8 5b 03 00 00       	call   1007a3 <kprintf>
  100448:	83 c4 10             	add    $0x10,%esp
  10044b:	8b 44 24 24          	mov    0x24(%esp),%eax
  10044f:	8b 40 30             	mov    0x30(%eax),%eax
  100452:	89 44 24 34          	mov    %eax,0x34(%esp)
  100456:	eb 52                	jmp    1004aa <_kernel_init+0x25e>
  100458:	8b 44 24 34          	mov    0x34(%esp),%eax
  10045c:	8b 78 14             	mov    0x14(%eax),%edi
  10045f:	8b 44 24 34          	mov    0x34(%esp),%eax
  100463:	8b 70 0c             	mov    0xc(%eax),%esi
  100466:	8b 44 24 34          	mov    0x34(%esp),%eax
  10046a:	8b 58 10             	mov    0x10(%eax),%ebx
  10046d:	8b 44 24 34          	mov    0x34(%esp),%eax
  100471:	8b 48 04             	mov    0x4(%eax),%ecx
  100474:	8b 44 24 34          	mov    0x34(%esp),%eax
  100478:	8b 50 08             	mov    0x8(%eax),%edx
  10047b:	8b 44 24 34          	mov    0x34(%esp),%eax
  10047f:	8b 00                	mov    (%eax),%eax
  100481:	83 ec 04             	sub    $0x4,%esp
  100484:	57                   	push   %edi
  100485:	56                   	push   %esi
  100486:	53                   	push   %ebx
  100487:	51                   	push   %ecx
  100488:	52                   	push   %edx
  100489:	50                   	push   %eax
  10048a:	68 58 71 10 00       	push   $0x107158
  10048f:	e8 0f 03 00 00       	call   1007a3 <kprintf>
  100494:	83 c4 20             	add    $0x20,%esp
  100497:	8b 44 24 34          	mov    0x34(%esp),%eax
  10049b:	8b 10                	mov    (%eax),%edx
  10049d:	8b 44 24 34          	mov    0x34(%esp),%eax
  1004a1:	01 d0                	add    %edx,%eax
  1004a3:	83 c0 04             	add    $0x4,%eax
  1004a6:	89 44 24 34          	mov    %eax,0x34(%esp)
  1004aa:	8b 44 24 24          	mov    0x24(%esp),%eax
  1004ae:	8b 50 30             	mov    0x30(%eax),%edx
  1004b1:	8b 44 24 24          	mov    0x24(%esp),%eax
  1004b5:	8b 40 2c             	mov    0x2c(%eax),%eax
  1004b8:	01 c2                	add    %eax,%edx
  1004ba:	8b 44 24 34          	mov    0x34(%esp),%eax
  1004be:	39 c2                	cmp    %eax,%edx
  1004c0:	77 96                	ja     100458 <_kernel_init+0x20c>
  1004c2:	8b 44 24 24          	mov    0x24(%esp),%eax
  1004c6:	8b 00                	mov    (%eax),%eax
  1004c8:	25 00 10 00 00       	and    $0x1000,%eax
  1004cd:	85 c0                	test   %eax,%eax
  1004cf:	0f 84 b7 02 00 00    	je     10078c <_kernel_init+0x540>
  1004d5:	8b 44 24 24          	mov    0x24(%esp),%eax
  1004d9:	8b 50 5c             	mov    0x5c(%eax),%edx
  1004dc:	8b 40 58             	mov    0x58(%eax),%eax
  1004df:	89 44 24 1c          	mov    %eax,0x1c(%esp)
  1004e3:	8b 44 24 24          	mov    0x24(%esp),%eax
  1004e7:	0f b6 40 6d          	movzbl 0x6d(%eax),%eax
  1004eb:	0f b6 c0             	movzbl %al,%eax
  1004ee:	83 f8 02             	cmp    $0x2,%eax
  1004f1:	0f 84 54 01 00 00    	je     10064b <_kernel_init+0x3ff>
  1004f7:	83 f8 02             	cmp    $0x2,%eax
  1004fa:	0f 8f 55 01 00 00    	jg     100655 <_kernel_init+0x409>
  100500:	85 c0                	test   %eax,%eax
  100502:	74 0e                	je     100512 <_kernel_init+0x2c6>
  100504:	83 f8 01             	cmp    $0x1,%eax
  100507:	0f 84 0e 01 00 00    	je     10061b <_kernel_init+0x3cf>
  10050d:	e9 43 01 00 00       	jmp    100655 <_kernel_init+0x409>
  100512:	8b 44 24 24          	mov    0x24(%esp),%eax
  100516:	8b 40 70             	mov    0x70(%eax),%eax
  100519:	89 44 24 18          	mov    %eax,0x18(%esp)
  10051d:	c7 44 24 30 00 00 00 	movl   $0x0,0x30(%esp)
  100524:	00 
  100525:	c7 44 24 28 00 00 04 	movl   $0x40000,0x28(%esp)
  10052c:	00 
  10052d:	c7 44 24 2c 00 00 00 	movl   $0x0,0x2c(%esp)
  100534:	00 
  100535:	e9 ca 00 00 00       	jmp    100604 <_kernel_init+0x3b8>
  10053a:	8b 54 24 2c          	mov    0x2c(%esp),%edx
  10053e:	89 d0                	mov    %edx,%eax
  100540:	01 c0                	add    %eax,%eax
  100542:	01 c2                	add    %eax,%edx
  100544:	8b 44 24 18          	mov    0x18(%esp),%eax
  100548:	01 d0                	add    %edx,%eax
  10054a:	0f b6 40 02          	movzbl 0x2(%eax),%eax
  10054e:	0f b6 c0             	movzbl %al,%eax
  100551:	ba ff 00 00 00       	mov    $0xff,%edx
  100556:	89 d1                	mov    %edx,%ecx
  100558:	29 c1                	sub    %eax,%ecx
  10055a:	8b 54 24 2c          	mov    0x2c(%esp),%edx
  10055e:	89 d0                	mov    %edx,%eax
  100560:	01 c0                	add    %eax,%eax
  100562:	01 c2                	add    %eax,%edx
  100564:	8b 44 24 18          	mov    0x18(%esp),%eax
  100568:	01 d0                	add    %edx,%eax
  10056a:	0f b6 40 02          	movzbl 0x2(%eax),%eax
  10056e:	0f b6 d0             	movzbl %al,%edx
  100571:	b8 ff 00 00 00       	mov    $0xff,%eax
  100576:	29 d0                	sub    %edx,%eax
  100578:	89 cb                	mov    %ecx,%ebx
  10057a:	0f af d8             	imul   %eax,%ebx
  10057d:	8b 54 24 2c          	mov    0x2c(%esp),%edx
  100581:	89 d0                	mov    %edx,%eax
  100583:	01 c0                	add    %eax,%eax
  100585:	01 c2                	add    %eax,%edx
  100587:	8b 44 24 18          	mov    0x18(%esp),%eax
  10058b:	01 d0                	add    %edx,%eax
  10058d:	0f b6 00             	movzbl (%eax),%eax
  100590:	0f b6 c8             	movzbl %al,%ecx
  100593:	8b 54 24 2c          	mov    0x2c(%esp),%edx
  100597:	89 d0                	mov    %edx,%eax
  100599:	01 c0                	add    %eax,%eax
  10059b:	01 c2                	add    %eax,%edx
  10059d:	8b 44 24 18          	mov    0x18(%esp),%eax
  1005a1:	01 d0                	add    %edx,%eax
  1005a3:	0f b6 00             	movzbl (%eax),%eax
  1005a6:	0f b6 c0             	movzbl %al,%eax
  1005a9:	0f af c1             	imul   %ecx,%eax
  1005ac:	01 c3                	add    %eax,%ebx
  1005ae:	8b 54 24 2c          	mov    0x2c(%esp),%edx
  1005b2:	89 d0                	mov    %edx,%eax
  1005b4:	01 c0                	add    %eax,%eax
  1005b6:	01 c2                	add    %eax,%edx
  1005b8:	8b 44 24 18          	mov    0x18(%esp),%eax
  1005bc:	01 d0                	add    %edx,%eax
  1005be:	0f b6 40 01          	movzbl 0x1(%eax),%eax
  1005c2:	0f b6 c8             	movzbl %al,%ecx
  1005c5:	8b 54 24 2c          	mov    0x2c(%esp),%edx
  1005c9:	89 d0                	mov    %edx,%eax
  1005cb:	01 c0                	add    %eax,%eax
  1005cd:	01 c2                	add    %eax,%edx
  1005cf:	8b 44 24 18          	mov    0x18(%esp),%eax
  1005d3:	01 d0                	add    %edx,%eax
  1005d5:	0f b6 40 01          	movzbl 0x1(%eax),%eax
  1005d9:	0f b6 c0             	movzbl %al,%eax
  1005dc:	0f af c1             	imul   %ecx,%eax
  1005df:	01 d8                	add    %ebx,%eax
  1005e1:	89 44 24 14          	mov    %eax,0x14(%esp)
  1005e5:	8b 44 24 14          	mov    0x14(%esp),%eax
  1005e9:	3b 44 24 28          	cmp    0x28(%esp),%eax
  1005ed:	73 10                	jae    1005ff <_kernel_init+0x3b3>
  1005ef:	8b 44 24 2c          	mov    0x2c(%esp),%eax
  1005f3:	89 44 24 30          	mov    %eax,0x30(%esp)
  1005f7:	8b 44 24 14          	mov    0x14(%esp),%eax
  1005fb:	89 44 24 28          	mov    %eax,0x28(%esp)
  1005ff:	83 44 24 2c 01       	addl   $0x1,0x2c(%esp)
  100604:	8b 44 24 24          	mov    0x24(%esp),%eax
  100608:	0f b7 40 74          	movzwl 0x74(%eax),%eax
  10060c:	0f b7 c0             	movzwl %ax,%eax
  10060f:	39 44 24 2c          	cmp    %eax,0x2c(%esp)
  100613:	0f 82 21 ff ff ff    	jb     10053a <_kernel_init+0x2ee>
  100619:	eb 43                	jmp    10065e <_kernel_init+0x412>
  10061b:	8b 44 24 24          	mov    0x24(%esp),%eax
  10061f:	0f b6 40 75          	movzbl 0x75(%eax),%eax
  100623:	0f b6 c0             	movzbl %al,%eax
  100626:	ba 01 00 00 00       	mov    $0x1,%edx
  10062b:	89 c1                	mov    %eax,%ecx
  10062d:	d3 e2                	shl    %cl,%edx
  10062f:	89 d0                	mov    %edx,%eax
  100631:	8d 50 ff             	lea    -0x1(%eax),%edx
  100634:	8b 44 24 24          	mov    0x24(%esp),%eax
  100638:	0f b6 40 74          	movzbl 0x74(%eax),%eax
  10063c:	0f b6 c0             	movzbl %al,%eax
  10063f:	89 c1                	mov    %eax,%ecx
  100641:	d3 e2                	shl    %cl,%edx
  100643:	89 d0                	mov    %edx,%eax
  100645:	89 44 24 30          	mov    %eax,0x30(%esp)
  100649:	eb 13                	jmp    10065e <_kernel_init+0x412>
  10064b:	c7 44 24 30 5c 01 00 	movl   $0x15c,0x30(%esp)
  100652:	00 
  100653:	eb 09                	jmp    10065e <_kernel_init+0x412>
  100655:	c7 44 24 30 ff ff ff 	movl   $0xffffffff,0x30(%esp)
  10065c:	ff 
  10065d:	90                   	nop
  10065e:	c7 44 24 2c 00 00 00 	movl   $0x0,0x2c(%esp)
  100665:	00 
  100666:	e9 03 01 00 00       	jmp    10076e <_kernel_init+0x522>
  10066b:	8b 44 24 24          	mov    0x24(%esp),%eax
  10066f:	0f b6 40 6c          	movzbl 0x6c(%eax),%eax
  100673:	0f b6 c0             	movzbl %al,%eax
  100676:	83 f8 20             	cmp    $0x20,%eax
  100679:	0f 84 c4 00 00 00    	je     100743 <_kernel_init+0x4f7>
  10067f:	83 f8 20             	cmp    $0x20,%eax
  100682:	0f 8f e1 00 00 00    	jg     100769 <_kernel_init+0x51d>
  100688:	83 f8 18             	cmp    $0x18,%eax
  10068b:	74 7b                	je     100708 <_kernel_init+0x4bc>
  10068d:	83 f8 18             	cmp    $0x18,%eax
  100690:	0f 8f d3 00 00 00    	jg     100769 <_kernel_init+0x51d>
  100696:	83 f8 08             	cmp    $0x8,%eax
  100699:	74 17                	je     1006b2 <_kernel_init+0x466>
  10069b:	83 f8 08             	cmp    $0x8,%eax
  10069e:	0f 8c c5 00 00 00    	jl     100769 <_kernel_init+0x51d>
  1006a4:	83 e8 0f             	sub    $0xf,%eax
  1006a7:	83 f8 01             	cmp    $0x1,%eax
  1006aa:	0f 87 b9 00 00 00    	ja     100769 <_kernel_init+0x51d>
  1006b0:	eb 2c                	jmp    1006de <_kernel_init+0x492>
  1006b2:	8b 44 24 24          	mov    0x24(%esp),%eax
  1006b6:	8b 40 60             	mov    0x60(%eax),%eax
  1006b9:	83 c0 01             	add    $0x1,%eax
  1006bc:	0f af 44 24 2c       	imul   0x2c(%esp),%eax
  1006c1:	89 c2                	mov    %eax,%edx
  1006c3:	8b 44 24 1c          	mov    0x1c(%esp),%eax
  1006c7:	01 d0                	add    %edx,%eax
  1006c9:	89 44 24 04          	mov    %eax,0x4(%esp)
  1006cd:	8b 44 24 30          	mov    0x30(%esp),%eax
  1006d1:	89 c2                	mov    %eax,%edx
  1006d3:	8b 44 24 04          	mov    0x4(%esp),%eax
  1006d7:	88 10                	mov    %dl,(%eax)
  1006d9:	e9 8b 00 00 00       	jmp    100769 <_kernel_init+0x51d>
  1006de:	8b 44 24 24          	mov    0x24(%esp),%eax
  1006e2:	8b 40 60             	mov    0x60(%eax),%eax
  1006e5:	83 c0 02             	add    $0x2,%eax
  1006e8:	0f af 44 24 2c       	imul   0x2c(%esp),%eax
  1006ed:	89 c2                	mov    %eax,%edx
  1006ef:	8b 44 24 1c          	mov    0x1c(%esp),%eax
  1006f3:	01 d0                	add    %edx,%eax
  1006f5:	89 44 24 08          	mov    %eax,0x8(%esp)
  1006f9:	8b 44 24 30          	mov    0x30(%esp),%eax
  1006fd:	89 c2                	mov    %eax,%edx
  1006ff:	8b 44 24 08          	mov    0x8(%esp),%eax
  100703:	66 89 10             	mov    %dx,(%eax)
  100706:	eb 61                	jmp    100769 <_kernel_init+0x51d>
  100708:	8b 44 24 24          	mov    0x24(%esp),%eax
  10070c:	8b 40 60             	mov    0x60(%eax),%eax
  10070f:	83 c0 03             	add    $0x3,%eax
  100712:	0f af 44 24 2c       	imul   0x2c(%esp),%eax
  100717:	89 c2                	mov    %eax,%edx
  100719:	8b 44 24 1c          	mov    0x1c(%esp),%eax
  10071d:	01 d0                	add    %edx,%eax
  10071f:	89 44 24 0c          	mov    %eax,0xc(%esp)
  100723:	8b 44 24 30          	mov    0x30(%esp),%eax
  100727:	25 ff ff ff 00       	and    $0xffffff,%eax
  10072c:	89 c2                	mov    %eax,%edx
  10072e:	8b 44 24 0c          	mov    0xc(%esp),%eax
  100732:	8b 00                	mov    (%eax),%eax
  100734:	25 00 00 00 ff       	and    $0xff000000,%eax
  100739:	09 c2                	or     %eax,%edx
  10073b:	8b 44 24 0c          	mov    0xc(%esp),%eax
  10073f:	89 10                	mov    %edx,(%eax)
  100741:	eb 26                	jmp    100769 <_kernel_init+0x51d>
  100743:	8b 44 24 24          	mov    0x24(%esp),%eax
  100747:	8b 40 60             	mov    0x60(%eax),%eax
  10074a:	83 c0 04             	add    $0x4,%eax
  10074d:	0f af 44 24 2c       	imul   0x2c(%esp),%eax
  100752:	89 c2                	mov    %eax,%edx
  100754:	8b 44 24 1c          	mov    0x1c(%esp),%eax
  100758:	01 d0                	add    %edx,%eax
  10075a:	89 44 24 10          	mov    %eax,0x10(%esp)
  10075e:	8b 44 24 10          	mov    0x10(%esp),%eax
  100762:	8b 54 24 30          	mov    0x30(%esp),%edx
  100766:	89 10                	mov    %edx,(%eax)
  100768:	90                   	nop
  100769:	83 44 24 2c 01       	addl   $0x1,0x2c(%esp)
  10076e:	8b 44 24 24          	mov    0x24(%esp),%eax
  100772:	8b 40 64             	mov    0x64(%eax),%eax
  100775:	39 44 24 2c          	cmp    %eax,0x2c(%esp)
  100779:	73 11                	jae    10078c <_kernel_init+0x540>
  10077b:	8b 44 24 24          	mov    0x24(%esp),%eax
  10077f:	8b 40 68             	mov    0x68(%eax),%eax
  100782:	39 44 24 2c          	cmp    %eax,0x2c(%esp)
  100786:	0f 82 df fe ff ff    	jb     10066b <_kernel_init+0x41f>
  10078c:	83 ec 0c             	sub    $0xc,%esp
  10078f:	68 9c 71 10 00       	push   $0x10719c
  100794:	e8 3a f9 ff ff       	call   1000d3 <vga_put_str>
  100799:	83 c4 10             	add    $0x10,%esp
  10079c:	83 c4 40             	add    $0x40,%esp
  10079f:	5b                   	pop    %ebx
  1007a0:	5e                   	pop    %esi
  1007a1:	5f                   	pop    %edi
  1007a2:	c3                   	ret    

001007a3 <kprintf>:
  1007a3:	83 ec 3c             	sub    $0x3c,%esp
  1007a6:	8d 44 24 40          	lea    0x40(%esp),%eax
  1007aa:	89 44 24 2c          	mov    %eax,0x2c(%esp)
  1007ae:	83 44 24 2c 04       	addl   $0x4,0x2c(%esp)
  1007b3:	e9 b5 01 00 00       	jmp    10096d <kprintf+0x1ca>
  1007b8:	83 7c 24 28 25       	cmpl   $0x25,0x28(%esp)
  1007bd:	74 18                	je     1007d7 <kprintf+0x34>
  1007bf:	8b 44 24 28          	mov    0x28(%esp),%eax
  1007c3:	0f be c0             	movsbl %al,%eax
  1007c6:	83 ec 0c             	sub    $0xc,%esp
  1007c9:	50                   	push   %eax
  1007ca:	e8 31 f8 ff ff       	call   100000 <vga_put_char>
  1007cf:	83 c4 10             	add    $0x10,%esp
  1007d2:	e9 96 01 00 00       	jmp    10096d <kprintf+0x1ca>
  1007d7:	c7 44 24 1c 00 00 00 	movl   $0x0,0x1c(%esp)
  1007de:	00 
  1007df:	c7 44 24 18 00 00 00 	movl   $0x0,0x18(%esp)
  1007e6:	00 
  1007e7:	8b 44 24 40          	mov    0x40(%esp),%eax
  1007eb:	8d 50 01             	lea    0x1(%eax),%edx
  1007ee:	89 54 24 40          	mov    %edx,0x40(%esp)
  1007f2:	0f b6 00             	movzbl (%eax),%eax
  1007f5:	0f be c0             	movsbl %al,%eax
  1007f8:	89 44 24 28          	mov    %eax,0x28(%esp)
  1007fc:	83 7c 24 28 30       	cmpl   $0x30,0x28(%esp)
  100801:	75 1d                	jne    100820 <kprintf+0x7d>
  100803:	c7 44 24 1c 01 00 00 	movl   $0x1,0x1c(%esp)
  10080a:	00 
  10080b:	8b 44 24 40          	mov    0x40(%esp),%eax
  10080f:	8d 50 01             	lea    0x1(%eax),%edx
  100812:	89 54 24 40          	mov    %edx,0x40(%esp)
  100816:	0f b6 00             	movzbl (%eax),%eax
  100819:	0f be c0             	movsbl %al,%eax
  10081c:	89 44 24 28          	mov    %eax,0x28(%esp)
  100820:	83 7c 24 28 2f       	cmpl   $0x2f,0x28(%esp)
  100825:	7e 27                	jle    10084e <kprintf+0xab>
  100827:	83 7c 24 28 39       	cmpl   $0x39,0x28(%esp)
  10082c:	7f 20                	jg     10084e <kprintf+0xab>
  10082e:	8b 44 24 28          	mov    0x28(%esp),%eax
  100832:	83 e8 30             	sub    $0x30,%eax
  100835:	89 44 24 18          	mov    %eax,0x18(%esp)
  100839:	8b 44 24 40          	mov    0x40(%esp),%eax
  10083d:	8d 50 01             	lea    0x1(%eax),%edx
  100840:	89 54 24 40          	mov    %edx,0x40(%esp)
  100844:	0f b6 00             	movzbl (%eax),%eax
  100847:	0f be c0             	movsbl %al,%eax
  10084a:	89 44 24 28          	mov    %eax,0x28(%esp)
  10084e:	83 7c 24 28 78       	cmpl   $0x78,0x28(%esp)
  100853:	74 30                	je     100885 <kprintf+0xe2>
  100855:	83 7c 24 28 78       	cmpl   $0x78,0x28(%esp)
  10085a:	0f 8f f0 00 00 00    	jg     100950 <kprintf+0x1ad>
  100860:	83 7c 24 28 75       	cmpl   $0x75,0x28(%esp)
  100865:	74 1e                	je     100885 <kprintf+0xe2>
  100867:	83 7c 24 28 75       	cmpl   $0x75,0x28(%esp)
  10086c:	0f 8f de 00 00 00    	jg     100950 <kprintf+0x1ad>
  100872:	83 7c 24 28 64       	cmpl   $0x64,0x28(%esp)
  100877:	74 0c                	je     100885 <kprintf+0xe2>
  100879:	83 7c 24 28 73       	cmpl   $0x73,0x28(%esp)
  10087e:	74 31                	je     1008b1 <kprintf+0x10e>
  100880:	e9 cb 00 00 00       	jmp    100950 <kprintf+0x1ad>
  100885:	8b 44 24 2c          	mov    0x2c(%esp),%eax
  100889:	8d 50 04             	lea    0x4(%eax),%edx
  10088c:	89 54 24 2c          	mov    %edx,0x2c(%esp)
  100890:	8b 00                	mov    (%eax),%eax
  100892:	83 ec 04             	sub    $0x4,%esp
  100895:	50                   	push   %eax
  100896:	ff 74 24 30          	push   0x30(%esp)
  10089a:	8d 44 24 10          	lea    0x10(%esp),%eax
  10089e:	50                   	push   %eax
  10089f:	e8 a1 f8 ff ff       	call   100145 <itoa>
  1008a4:	83 c4 10             	add    $0x10,%esp
  1008a7:	8d 44 24 04          	lea    0x4(%esp),%eax
  1008ab:	89 44 24 24          	mov    %eax,0x24(%esp)
  1008af:	eb 23                	jmp    1008d4 <kprintf+0x131>
  1008b1:	8b 44 24 2c          	mov    0x2c(%esp),%eax
  1008b5:	8d 50 04             	lea    0x4(%eax),%edx
  1008b8:	89 54 24 2c          	mov    %edx,0x2c(%esp)
  1008bc:	8b 00                	mov    (%eax),%eax
  1008be:	89 44 24 24          	mov    %eax,0x24(%esp)
  1008c2:	83 7c 24 24 00       	cmpl   $0x0,0x24(%esp)
  1008c7:	75 0a                	jne    1008d3 <kprintf+0x130>
  1008c9:	c7 44 24 24 a5 71 10 	movl   $0x1071a5,0x24(%esp)
  1008d0:	00 
  1008d1:	eb 01                	jmp    1008d4 <kprintf+0x131>
  1008d3:	90                   	nop
  1008d4:	8b 44 24 24          	mov    0x24(%esp),%eax
  1008d8:	89 44 24 20          	mov    %eax,0x20(%esp)
  1008dc:	eb 05                	jmp    1008e3 <kprintf+0x140>
  1008de:	83 44 24 20 01       	addl   $0x1,0x20(%esp)
  1008e3:	8b 44 24 20          	mov    0x20(%esp),%eax
  1008e7:	0f b6 00             	movzbl (%eax),%eax
  1008ea:	84 c0                	test   %al,%al
  1008ec:	75 f0                	jne    1008de <kprintf+0x13b>
  1008ee:	eb 24                	jmp    100914 <kprintf+0x171>
  1008f0:	83 7c 24 1c 00       	cmpl   $0x0,0x1c(%esp)
  1008f5:	74 07                	je     1008fe <kprintf+0x15b>
  1008f7:	b8 30 00 00 00       	mov    $0x30,%eax
  1008fc:	eb 05                	jmp    100903 <kprintf+0x160>
  1008fe:	b8 20 00 00 00       	mov    $0x20,%eax
  100903:	83 ec 0c             	sub    $0xc,%esp
  100906:	50                   	push   %eax
  100907:	e8 f4 f6 ff ff       	call   100000 <vga_put_char>
  10090c:	83 c4 10             	add    $0x10,%esp
  10090f:	83 44 24 20 01       	addl   $0x1,0x20(%esp)
  100914:	8b 54 24 18          	mov    0x18(%esp),%edx
  100918:	8b 44 24 24          	mov    0x24(%esp),%eax
  10091c:	01 d0                	add    %edx,%eax
  10091e:	39 44 24 20          	cmp    %eax,0x20(%esp)
  100922:	72 cc                	jb     1008f0 <kprintf+0x14d>
  100924:	eb 1d                	jmp    100943 <kprintf+0x1a0>
  100926:	8b 44 24 24          	mov    0x24(%esp),%eax
  10092a:	8d 50 01             	lea    0x1(%eax),%edx
  10092d:	89 54 24 24          	mov    %edx,0x24(%esp)
  100931:	0f b6 00             	movzbl (%eax),%eax
  100934:	0f be c0             	movsbl %al,%eax
  100937:	83 ec 0c             	sub    $0xc,%esp
  10093a:	50                   	push   %eax
  10093b:	e8 c0 f6 ff ff       	call   100000 <vga_put_char>
  100940:	83 c4 10             	add    $0x10,%esp
  100943:	8b 44 24 24          	mov    0x24(%esp),%eax
  100947:	0f b6 00             	movzbl (%eax),%eax
  10094a:	84 c0                	test   %al,%al
  10094c:	75 d8                	jne    100926 <kprintf+0x183>
  10094e:	eb 1d                	jmp    10096d <kprintf+0x1ca>
  100950:	8b 44 24 2c          	mov    0x2c(%esp),%eax
  100954:	8d 50 04             	lea    0x4(%eax),%edx
  100957:	89 54 24 2c          	mov    %edx,0x2c(%esp)
  10095b:	8b 00                	mov    (%eax),%eax
  10095d:	0f be c0             	movsbl %al,%eax
  100960:	83 ec 0c             	sub    $0xc,%esp
  100963:	50                   	push   %eax
  100964:	e8 97 f6 ff ff       	call   100000 <vga_put_char>
  100969:	83 c4 10             	add    $0x10,%esp
  10096c:	90                   	nop
  10096d:	8b 44 24 40          	mov    0x40(%esp),%eax
  100971:	8d 50 01             	lea    0x1(%eax),%edx
  100974:	89 54 24 40          	mov    %edx,0x40(%esp)
  100978:	0f b6 00             	movzbl (%eax),%eax
  10097b:	0f be c0             	movsbl %al,%eax
  10097e:	89 44 24 28          	mov    %eax,0x28(%esp)
  100982:	83 7c 24 28 00       	cmpl   $0x0,0x28(%esp)
  100987:	0f 85 2b fe ff ff    	jne    1007b8 <kprintf+0x15>
  10098d:	90                   	nop
  10098e:	90                   	nop
  10098f:	83 c4 3c             	add    $0x3c,%esp
  100992:	c3                   	ret    

Disassembly of section .multiboot_entry::

00000000 <start>:
   0:	bc 10 50 10 00       	mov    $0x105010,%esp
   5:	53                   	push   %ebx
   6:	50                   	push   %eax
   7:	e8 40 02 10 00       	call   10024c <_kernel_init>
   c:	fa                   	cli    

0000000d <loop>:
   d:	f4                   	hlt    
   e:	eb fd                	jmp    d <loop>
