
build/bin/melox.bin:     file format elf32-i386


Disassembly of section .virk_init_text:

00100000 <start-0xc>:
  100000:	02 b0 ad 1b 03 00    	add    0x31bad(%eax),%dh
  100006:	00 00                	add    %al,(%eax)
  100008:	fb                   	sti    
  100009:	4f                   	dec    %edi
  10000a:	52                   	push   %edx
  10000b:	e4                   	.byte 0xe4

0010000c <start>:
  10000c:	fa                   	cli    
  10000d:	bc 00 60 10 00       	mov    $0x106000,%esp
  100012:	68 00 10 10 00       	push   $0x101000
  100017:	53                   	push   %ebx
  100018:	e8 64 00 00 00       	call   100081 <save_multiboot_info>
  10001d:	58                   	pop    %eax
  10001e:	58                   	pop    %eax
  10001f:	68 00 a0 00 00       	push   $0xa000
  100024:	68 00 f0 d0 00       	push   $0xd0f000
  100029:	e8 a4 02 00 00       	call   1002d2 <kerner_init>
  10002e:	8b 04 24             	mov    (%esp),%eax
  100031:	25 00 f0 ff ff       	and    $0xfffff000,%eax
  100036:	0f 22 d8             	mov    %eax,%cr3
  100039:	0f 20 c0             	mov    %cr0,%eax
  10003c:	0d 00 00 00 80       	or     $0x80000000,%eax
  100041:	0f 22 c0             	mov    %eax,%cr0
  100044:	58                   	pop    %eax
  100045:	58                   	pop    %eax
  100046:	68 54 8f 10 c0       	push   $0xc0108f54
  10004b:	c3                   	ret    

0010004c <_save_>:
extern uint8_t virkernel_start;
extern uint8_t virkernel_end ;
extern uint8_t __init_phykernel_end;
extern uint8_t _kernel_stack;

uint32_t _save_(uint8_t* destination, uint8_t* base, multiboot_uint32_t size) {
  10004c:	55                   	push   %ebp
  10004d:	89 e5                	mov    %esp,%ebp
  10004f:	83 ec 10             	sub    $0x10,%esp
    multiboot_uint32_t i = 0;
  100052:	c7 45 fc 00 00 00 00 	movl   $0x0,-0x4(%ebp)
    for (; i < size; i++)
  100059:	eb 19                	jmp    100074 <_save_+0x28>
    {
        *(destination + i) = *(base + i);
  10005b:	8b 55 0c             	mov    0xc(%ebp),%edx
  10005e:	8b 45 fc             	mov    -0x4(%ebp),%eax
  100061:	01 d0                	add    %edx,%eax
  100063:	8b 4d 08             	mov    0x8(%ebp),%ecx
  100066:	8b 55 fc             	mov    -0x4(%ebp),%edx
  100069:	01 ca                	add    %ecx,%edx
  10006b:	0f b6 00             	movzbl (%eax),%eax
  10006e:	88 02                	mov    %al,(%edx)
    for (; i < size; i++)
  100070:	83 45 fc 01          	addl   $0x1,-0x4(%ebp)
  100074:	8b 45 fc             	mov    -0x4(%ebp),%eax
  100077:	3b 45 10             	cmp    0x10(%ebp),%eax
  10007a:	72 df                	jb     10005b <_save_+0xf>
    }
    return i;
  10007c:	8b 45 fc             	mov    -0x4(%ebp),%eax
}
  10007f:	c9                   	leave  
  100080:	c3                   	ret    

00100081 <save_multiboot_info>:

void save_multiboot_info(multiboot_info_t* mb_info, multiboot_uint8_t* dest)
{
  100081:	55                   	push   %ebp
  100082:	89 e5                	mov    %esp,%ebp
  100084:	53                   	push   %ebx
  100085:	83 ec 10             	sub    $0x10,%esp
    uint32_t current = 0;
  100088:	c7 45 f8 00 00 00 00 	movl   $0x0,-0x8(%ebp)
    uint8_t* info_b = (uint8_t*) mb_info;
  10008f:	8b 45 08             	mov    0x8(%ebp),%eax
  100092:	89 45 f4             	mov    %eax,-0xc(%ebp)
    for (; current < sizeof(multiboot_info_t); current++)
  100095:	eb 19                	jmp    1000b0 <save_multiboot_info+0x2f>
    {
        *(dest + current) = *(info_b + current);
  100097:	8b 55 f4             	mov    -0xc(%ebp),%edx
  10009a:	8b 45 f8             	mov    -0x8(%ebp),%eax
  10009d:	01 d0                	add    %edx,%eax
  10009f:	8b 4d 0c             	mov    0xc(%ebp),%ecx
  1000a2:	8b 55 f8             	mov    -0x8(%ebp),%edx
  1000a5:	01 ca                	add    %ecx,%edx
  1000a7:	0f b6 00             	movzbl (%eax),%eax
  1000aa:	88 02                	mov    %al,(%edx)
    for (; current < sizeof(multiboot_info_t); current++)
  1000ac:	83 45 f8 01          	addl   $0x1,-0x8(%ebp)
  1000b0:	83 7d f8 77          	cmpl   $0x77,-0x8(%ebp)
  1000b4:	76 e1                	jbe    100097 <save_multiboot_info+0x16>
    }

    ((multiboot_info_t*) dest)->mmap_addr = (uintptr_t)dest + current;
  1000b6:	8b 55 0c             	mov    0xc(%ebp),%edx
  1000b9:	8b 45 f8             	mov    -0x8(%ebp),%eax
  1000bc:	01 c2                	add    %eax,%edx
  1000be:	8b 45 0c             	mov    0xc(%ebp),%eax
  1000c1:	89 50 30             	mov    %edx,0x30(%eax)
    current += _save_(dest + current, (uint8_t*)mb_info->mmap_addr, mb_info->mmap_length);
  1000c4:	8b 45 08             	mov    0x8(%ebp),%eax
  1000c7:	8b 40 2c             	mov    0x2c(%eax),%eax
  1000ca:	8b 55 08             	mov    0x8(%ebp),%edx
  1000cd:	8b 52 30             	mov    0x30(%edx),%edx
  1000d0:	89 d1                	mov    %edx,%ecx
  1000d2:	8b 5d 0c             	mov    0xc(%ebp),%ebx
  1000d5:	8b 55 f8             	mov    -0x8(%ebp),%edx
  1000d8:	01 da                	add    %ebx,%edx
  1000da:	50                   	push   %eax
  1000db:	51                   	push   %ecx
  1000dc:	52                   	push   %edx
  1000dd:	e8 6a ff ff ff       	call   10004c <_save_>
  1000e2:	83 c4 0c             	add    $0xc,%esp
  1000e5:	01 45 f8             	add    %eax,-0x8(%ebp)

    if (present(mb_info->flags, MULTIBOOT_INFO_DRIVE_INFO)) {
  1000e8:	8b 45 08             	mov    0x8(%ebp),%eax
  1000eb:	8b 00                	mov    (%eax),%eax
  1000ed:	25 80 00 00 00       	and    $0x80,%eax
  1000f2:	85 c0                	test   %eax,%eax
  1000f4:	74 32                	je     100128 <save_multiboot_info+0xa7>
        ((multiboot_info_t*) dest)->drives_addr = (uintptr_t)dest + current;
  1000f6:	8b 55 0c             	mov    0xc(%ebp),%edx
  1000f9:	8b 45 f8             	mov    -0x8(%ebp),%eax
  1000fc:	01 c2                	add    %eax,%edx
  1000fe:	8b 45 0c             	mov    0xc(%ebp),%eax
  100101:	89 50 38             	mov    %edx,0x38(%eax)
        current += _save_(dest + current, (uint8_t*)mb_info->drives_addr, mb_info->drives_length);
  100104:	8b 45 08             	mov    0x8(%ebp),%eax
  100107:	8b 40 34             	mov    0x34(%eax),%eax
  10010a:	8b 55 08             	mov    0x8(%ebp),%edx
  10010d:	8b 52 38             	mov    0x38(%edx),%edx
  100110:	89 d1                	mov    %edx,%ecx
  100112:	8b 5d 0c             	mov    0xc(%ebp),%ebx
  100115:	8b 55 f8             	mov    -0x8(%ebp),%edx
  100118:	01 da                	add    %ebx,%edx
  10011a:	50                   	push   %eax
  10011b:	51                   	push   %ecx
  10011c:	52                   	push   %edx
  10011d:	e8 2a ff ff ff       	call   10004c <_save_>
  100122:	83 c4 0c             	add    $0xc,%esp
  100125:	01 45 f8             	add    %eax,-0x8(%ebp)
    }
    multiboot_info_t* test = (multiboot_info_t*) dest;
  100128:	8b 45 0c             	mov    0xc(%ebp),%eax
  10012b:	89 45 f0             	mov    %eax,-0x10(%ebp)
    multiboot_memory_map_t* testmap = (multiboot_memory_map_t*)mb_info->mmap_addr;
  10012e:	8b 45 08             	mov    0x8(%ebp),%eax
  100131:	8b 40 30             	mov    0x30(%eax),%eax
  100134:	89 45 ec             	mov    %eax,-0x14(%ebp)
}
  100137:	90                   	nop
  100138:	8b 5d fc             	mov    -0x4(%ebp),%ebx
  10013b:	c9                   	leave  
  10013c:	c3                   	ret    

0010013d <init_page>:

void init_page(ptd_t* pt)
{
  10013d:	55                   	push   %ebp
  10013e:	89 e5                	mov    %esp,%ebp
  100140:	83 ec 30             	sub    $0x30,%esp
    SET_PDE(pt, 0, PDE(PG_PREM_RW, pt + PG_MAX_ENTRIES));
  100143:	8b 45 08             	mov    0x8(%ebp),%eax
  100146:	05 00 10 00 00       	add    $0x1000,%eax
  10014b:	25 00 f0 ff ff       	and    $0xfffff000,%eax
  100150:	83 c8 0b             	or     $0xb,%eax
  100153:	89 c2                	mov    %eax,%edx
  100155:	8b 45 08             	mov    0x8(%ebp),%eax
  100158:	89 10                	mov    %edx,(%eax)
    ptd_t * tmp_paged_phy_addr = pt;
  10015a:	8b 45 08             	mov    0x8(%ebp),%eax
  10015d:	89 45 ec             	mov    %eax,-0x14(%ebp)
    ptd_t * tmp_paget_phy_addr = pt + 1024;
  100160:	8b 45 08             	mov    0x8(%ebp),%eax
  100163:	05 00 10 00 00       	add    $0x1000,%eax
  100168:	89 45 e8             	mov    %eax,-0x18(%ebp)
    //identity map 1M memory
    for(uint32_t i = 0; i < 256; i++)
  10016b:	c7 45 fc 00 00 00 00 	movl   $0x0,-0x4(%ebp)
  100172:	eb 20                	jmp    100194 <init_page+0x57>
        *(tmp_paget_phy_addr + i) = (((i << 12) & 0xFFFFF000UL) | (PG_PREM_RW & 0xfff));
  100174:	8b 45 fc             	mov    -0x4(%ebp),%eax
  100177:	c1 e0 0c             	shl    $0xc,%eax
  10017a:	89 c2                	mov    %eax,%edx
  10017c:	8b 45 fc             	mov    -0x4(%ebp),%eax
  10017f:	8d 0c 85 00 00 00 00 	lea    0x0(,%eax,4),%ecx
  100186:	8b 45 e8             	mov    -0x18(%ebp),%eax
  100189:	01 c8                	add    %ecx,%eax
  10018b:	83 ca 03             	or     $0x3,%edx
  10018e:	89 10                	mov    %edx,(%eax)
    for(uint32_t i = 0; i < 256; i++)
  100190:	83 45 fc 01          	addl   $0x1,-0x4(%ebp)
  100194:	81 7d fc ff 00 00 00 	cmpl   $0xff,-0x4(%ebp)
  10019b:	76 d7                	jbe    100174 <init_page+0x37>

    //identity map virkernel_init memory
    for(uint32_t i = 0; i < LOADOS_PAGE_COUNT; i++)
  10019d:	c7 45 f8 00 00 00 00 	movl   $0x0,-0x8(%ebp)
  1001a4:	eb 29                	jmp    1001cf <init_page+0x92>
        *(tmp_paget_phy_addr + i + 256) = ((((i << 12) + MEM_1M) & 0xFFFFF000UL) | (PG_PREM_RW & 0xfff));
  1001a6:	8b 45 f8             	mov    -0x8(%ebp),%eax
  1001a9:	c1 e0 0c             	shl    $0xc,%eax
  1001ac:	8d 90 00 00 10 00    	lea    0x100000(%eax),%edx
  1001b2:	8b 45 f8             	mov    -0x8(%ebp),%eax
  1001b5:	05 00 01 00 00       	add    $0x100,%eax
  1001ba:	8d 0c 85 00 00 00 00 	lea    0x0(,%eax,4),%ecx
  1001c1:	8b 45 e8             	mov    -0x18(%ebp),%eax
  1001c4:	01 c8                	add    %ecx,%eax
  1001c6:	83 ca 03             	or     $0x3,%edx
  1001c9:	89 10                	mov    %edx,(%eax)
    for(uint32_t i = 0; i < LOADOS_PAGE_COUNT; i++)
  1001cb:	83 45 f8 01          	addl   $0x1,-0x8(%ebp)
  1001cf:	b8 00 60 10 00       	mov    $0x106000,%eax
  1001d4:	2d 01 f0 0f 00       	sub    $0xff001,%eax
  1001d9:	c1 e8 0c             	shr    $0xc,%eax
  1001dc:	39 45 f8             	cmp    %eax,-0x8(%ebp)
  1001df:	72 c5                	jb     1001a6 <init_page+0x69>

    //now we map the kernel
    //calculate the virtrue kernrl page index
    uint32_t virk_pde_index = PD_INDEX(sym_val(virkernel_start));
  1001e1:	b8 00 60 10 c0       	mov    $0xc0106000,%eax
  1001e6:	c1 e8 16             	shr    $0x16,%eax
  1001e9:	89 45 e4             	mov    %eax,-0x1c(%ebp)
    uint32_t virk_pte_index = PT_INDEX(sym_val(virkernel_start));
  1001ec:	b8 00 60 10 c0       	mov    $0xc0106000,%eax
  1001f1:	c1 e8 0c             	shr    $0xc,%eax
  1001f4:	25 ff 03 00 00       	and    $0x3ff,%eax
  1001f9:	89 45 e0             	mov    %eax,-0x20(%ebp)
    uint32_t virk_pg_counts = KERNEL_PAGE_COUNT;
  1001fc:	b8 00 90 d1 c0       	mov    $0xc0d19000,%eax
  100201:	05 00 10 00 00       	add    $0x1000,%eax
  100206:	83 e8 01             	sub    $0x1,%eax
  100209:	ba 00 60 10 c0       	mov    $0xc0106000,%edx
  10020e:	29 d0                	sub    %edx,%eax
  100210:	c1 e8 0c             	shr    $0xc,%eax
  100213:	89 45 dc             	mov    %eax,-0x24(%ebp)

    //regist the vir_kernel page to page direction
    //we give 3 pagetable to virkel, is 3 * 4 = 12 mib size
    for(uint32_t i = 0; i < PG_TABLE_STACK - PG_TABLE_KERNEL; i++)
  100216:	c7 45 f4 00 00 00 00 	movl   $0x0,-0xc(%ebp)
  10021d:	eb 34                	jmp    100253 <init_page+0x116>
    {
        *(pt + virk_pde_index + i) = PDE(PG_PREM_RW, PT_ADDR(pt, PG_TABLE_KERNEL + i));
  10021f:	8b 45 f4             	mov    -0xc(%ebp),%eax
  100222:	83 c0 02             	add    $0x2,%eax
  100225:	c1 e0 0c             	shl    $0xc,%eax
  100228:	89 c2                	mov    %eax,%edx
  10022a:	8b 45 08             	mov    0x8(%ebp),%eax
  10022d:	01 d0                	add    %edx,%eax
  10022f:	25 00 f0 ff ff       	and    $0xfffff000,%eax
  100234:	89 c2                	mov    %eax,%edx
  100236:	8b 4d e4             	mov    -0x1c(%ebp),%ecx
  100239:	8b 45 f4             	mov    -0xc(%ebp),%eax
  10023c:	01 c8                	add    %ecx,%eax
  10023e:	8d 0c 85 00 00 00 00 	lea    0x0(,%eax,4),%ecx
  100245:	8b 45 08             	mov    0x8(%ebp),%eax
  100248:	01 c8                	add    %ecx,%eax
  10024a:	83 ca 0b             	or     $0xb,%edx
  10024d:	89 10                	mov    %edx,(%eax)
    for(uint32_t i = 0; i < PG_TABLE_STACK - PG_TABLE_KERNEL; i++)
  10024f:	83 45 f4 01          	addl   $0x1,-0xc(%ebp)
  100253:	83 7d f4 06          	cmpl   $0x6,-0xc(%ebp)
  100257:	76 c6                	jbe    10021f <init_page+0xe2>
    }

    //avoid kernel size > prepared page count
    if(virk_pg_counts > (PG_TABLE_STACK - PG_TABLE_KERNEL) * 1024)
  100259:	81 7d dc 00 1c 00 00 	cmpl   $0x1c00,-0x24(%ebp)
  100260:	76 02                	jbe    100264 <init_page+0x127>
    {
        asm ("ud2");
  100262:	0f 0b                	ud2    
    }

    //calcul the phy address
    uint32_t virk_phy_addr = V2P(&virkernel_start);
  100264:	b8 00 60 10 c0       	mov    $0xc0106000,%eax
  100269:	05 00 00 00 40       	add    $0x40000000,%eax
  10026e:	89 45 d8             	mov    %eax,-0x28(%ebp)
    //map virtrue kernel page
    for(uint32_t i = 0; i < virk_pg_counts; i++)
  100271:	c7 45 f0 00 00 00 00 	movl   $0x0,-0x10(%ebp)
  100278:	eb 36                	jmp    1002b0 <init_page+0x173>
    {
        *(tmp_paget_phy_addr + 1024 + virk_pte_index + i) = (((virk_phy_addr + (i << 12)) & 0xFFFFF000UL) | (PG_PREM_RW & 0xfff));
  10027a:	8b 45 f0             	mov    -0x10(%ebp),%eax
  10027d:	c1 e0 0c             	shl    $0xc,%eax
  100280:	89 c2                	mov    %eax,%edx
  100282:	8b 45 d8             	mov    -0x28(%ebp),%eax
  100285:	01 d0                	add    %edx,%eax
  100287:	25 00 f0 ff ff       	and    $0xfffff000,%eax
  10028c:	89 c2                	mov    %eax,%edx
  10028e:	8b 4d e0             	mov    -0x20(%ebp),%ecx
  100291:	8b 45 f0             	mov    -0x10(%ebp),%eax
  100294:	01 c8                	add    %ecx,%eax
  100296:	05 00 04 00 00       	add    $0x400,%eax
  10029b:	8d 0c 85 00 00 00 00 	lea    0x0(,%eax,4),%ecx
  1002a2:	8b 45 e8             	mov    -0x18(%ebp),%eax
  1002a5:	01 c8                	add    %ecx,%eax
  1002a7:	83 ca 03             	or     $0x3,%edx
  1002aa:	89 10                	mov    %edx,(%eax)
    for(uint32_t i = 0; i < virk_pg_counts; i++)
  1002ac:	83 45 f0 01          	addl   $0x1,-0x10(%ebp)
  1002b0:	8b 45 f0             	mov    -0x10(%ebp),%eax
  1002b3:	3b 45 dc             	cmp    -0x24(%ebp),%eax
  1002b6:	72 c2                	jb     10027a <init_page+0x13d>
    }

    //self map pd, to give the pd virture address
    SET_PDE(pt, 1023, PDE(T_SELF_REF_PERM, pt));
  1002b8:	8b 45 08             	mov    0x8(%ebp),%eax
  1002bb:	25 00 f0 ff ff       	and    $0xfffff000,%eax
  1002c0:	89 c2                	mov    %eax,%edx
  1002c2:	8b 45 08             	mov    0x8(%ebp),%eax
  1002c5:	05 fc 0f 00 00       	add    $0xffc,%eax
  1002ca:	83 ca 1b             	or     $0x1b,%edx
  1002cd:	89 10                	mov    %edx,(%eax)
}
  1002cf:	90                   	nop
  1002d0:	c9                   	leave  
  1002d1:	c3                   	ret    

001002d2 <kerner_init>:

void kerner_init(ptd_t* pt, uint32_t pt_size)
{
  1002d2:	55                   	push   %ebp
  1002d3:	89 e5                	mov    %esp,%ebp
  1002d5:	83 ec 10             	sub    $0x10,%esp
    uint8_t* kpg = (uint8_t*) pt;
  1002d8:	8b 45 08             	mov    0x8(%ebp),%eax
  1002db:	89 45 f8             	mov    %eax,-0x8(%ebp)
    for (uint32_t i = 0; i < pt_size; i++)
  1002de:	c7 45 fc 00 00 00 00 	movl   $0x0,-0x4(%ebp)
  1002e5:	eb 0f                	jmp    1002f6 <kerner_init+0x24>
    {
        *(kpg + i) = 0;
  1002e7:	8b 55 f8             	mov    -0x8(%ebp),%edx
  1002ea:	8b 45 fc             	mov    -0x4(%ebp),%eax
  1002ed:	01 d0                	add    %edx,%eax
  1002ef:	c6 00 00             	movb   $0x0,(%eax)
    for (uint32_t i = 0; i < pt_size; i++)
  1002f2:	83 45 fc 01          	addl   $0x1,-0x4(%ebp)
  1002f6:	8b 45 fc             	mov    -0x4(%ebp),%eax
  1002f9:	3b 45 0c             	cmp    0xc(%ebp),%eax
  1002fc:	72 e9                	jb     1002e7 <kerner_init+0x15>
    }
    init_page(pt);
  1002fe:	ff 75 08             	push   0x8(%ebp)
  100301:	e8 37 fe ff ff       	call   10013d <init_page>
  100306:	83 c4 04             	add    $0x4,%esp
  100309:	90                   	nop
  10030a:	c9                   	leave  
  10030b:	c3                   	ret    

Disassembly of section .text:

c0106000 <init_vga_buffer>:
int XPOS = 0;

vga_attr *video;

void init_vga_buffer()
{
c0106000:	55                   	push   %ebp
c0106001:	89 e5                	mov    %esp,%ebp
    video = (vga_attr *) VIDEO;
c0106003:	c7 05 0c b0 10 c0 00 	movl   $0xb8000,0xc010b00c
c010600a:	80 0b 00 
}
c010600d:	90                   	nop
c010600e:	5d                   	pop    %ebp
c010600f:	c3                   	ret    

c0106010 <set_vga_buffer>:

void set_vga_buffer(void* vga_buf)
{
c0106010:	55                   	push   %ebp
c0106011:	89 e5                	mov    %esp,%ebp
    video = (vga_attr*)vga_buf;
c0106013:	8b 45 08             	mov    0x8(%ebp),%eax
c0106016:	a3 0c b0 10 c0       	mov    %eax,0xc010b00c
}
c010601b:	90                   	nop
c010601c:	5d                   	pop    %ebp
c010601d:	c3                   	ret    

c010601e <vga_put_char>:

void vga_put_char(char c)
{
c010601e:	55                   	push   %ebp
c010601f:	89 e5                	mov    %esp,%ebp
c0106021:	53                   	push   %ebx
c0106022:	83 ec 14             	sub    $0x14,%esp
c0106025:	8b 45 08             	mov    0x8(%ebp),%eax
c0106028:	88 45 f4             	mov    %al,-0xc(%ebp)
    if(c == '\n')
c010602b:	80 7d f4 0a          	cmpb   $0xa,-0xc(%ebp)
c010602f:	75 19                	jne    c010604a <vga_put_char+0x2c>
    {
        YPOS++;
c0106031:	a1 04 b0 10 c0       	mov    0xc010b004,%eax
c0106036:	83 c0 01             	add    $0x1,%eax
c0106039:	a3 04 b0 10 c0       	mov    %eax,0xc010b004
        XPOS = 0;
c010603e:	c7 05 08 b0 10 c0 00 	movl   $0x0,0xc010b008
c0106045:	00 00 00 
c0106048:	eb 54                	jmp    c010609e <vga_put_char+0x80>
    }else if(c == '\r')
c010604a:	80 7d f4 0d          	cmpb   $0xd,-0xc(%ebp)
c010604e:	75 0c                	jne    c010605c <vga_put_char+0x3e>
        XPOS = 0;
c0106050:	c7 05 08 b0 10 c0 00 	movl   $0x0,0xc010b008
c0106057:	00 00 00 
c010605a:	eb 42                	jmp    c010609e <vga_put_char+0x80>
    else{
        *(video + XPOS + YPOS * WIDTH) = (theme_color | c);
c010605c:	66 0f be 55 f4       	movsbw -0xc(%ebp),%dx
c0106061:	0f b7 05 00 b0 10 c0 	movzwl 0xc010b000,%eax
c0106068:	09 c2                	or     %eax,%edx
c010606a:	8b 0d 0c b0 10 c0    	mov    0xc010b00c,%ecx
c0106070:	a1 04 b0 10 c0       	mov    0xc010b004,%eax
c0106075:	89 c3                	mov    %eax,%ebx
c0106077:	89 d8                	mov    %ebx,%eax
c0106079:	c1 e0 02             	shl    $0x2,%eax
c010607c:	01 d8                	add    %ebx,%eax
c010607e:	c1 e0 04             	shl    $0x4,%eax
c0106081:	89 c3                	mov    %eax,%ebx
c0106083:	a1 08 b0 10 c0       	mov    0xc010b008,%eax
c0106088:	01 d8                	add    %ebx,%eax
c010608a:	01 c0                	add    %eax,%eax
c010608c:	01 c8                	add    %ecx,%eax
c010608e:	66 89 10             	mov    %dx,(%eax)
        XPOS++;
c0106091:	a1 08 b0 10 c0       	mov    0xc010b008,%eax
c0106096:	83 c0 01             	add    $0x1,%eax
c0106099:	a3 08 b0 10 c0       	mov    %eax,0xc010b008
    }
    if (XPOS >= WIDTH)
c010609e:	a1 08 b0 10 c0       	mov    0xc010b008,%eax
c01060a3:	83 f8 4f             	cmp    $0x4f,%eax
c01060a6:	7e 17                	jle    c01060bf <vga_put_char+0xa1>
    {
        YPOS++;
c01060a8:	a1 04 b0 10 c0       	mov    0xc010b004,%eax
c01060ad:	83 c0 01             	add    $0x1,%eax
c01060b0:	a3 04 b0 10 c0       	mov    %eax,0xc010b004
        XPOS = 0;
c01060b5:	c7 05 08 b0 10 c0 00 	movl   $0x0,0xc010b008
c01060bc:	00 00 00 
    }
    if(YPOS >= HIGHT)
c01060bf:	a1 04 b0 10 c0       	mov    0xc010b004,%eax
c01060c4:	83 f8 18             	cmp    $0x18,%eax
c01060c7:	7e 05                	jle    c01060ce <vga_put_char+0xb0>
        vga_scrollup();
c01060c9:	e8 be 00 00 00       	call   c010618c <vga_scrollup>
}
c01060ce:	90                   	nop
c01060cf:	8b 5d fc             	mov    -0x4(%ebp),%ebx
c01060d2:	c9                   	leave  
c01060d3:	c3                   	ret    

c01060d4 <vga_set_show>:

void vga_set_show(vga_attr flashing, vga_attr backgroud, vga_attr frontcolor)
{
c01060d4:	55                   	push   %ebp
c01060d5:	89 e5                	mov    %esp,%ebp
c01060d7:	83 ec 0c             	sub    $0xc,%esp
c01060da:	8b 4d 08             	mov    0x8(%ebp),%ecx
c01060dd:	8b 55 0c             	mov    0xc(%ebp),%edx
c01060e0:	8b 45 10             	mov    0x10(%ebp),%eax
c01060e3:	66 89 4d fc          	mov    %cx,-0x4(%ebp)
c01060e7:	66 89 55 f8          	mov    %dx,-0x8(%ebp)
c01060eb:	66 89 45 f4          	mov    %ax,-0xc(%ebp)
    theme_color = (flashing << 7 | backgroud << 4 | frontcolor) << 8;
c01060ef:	0f b7 45 fc          	movzwl -0x4(%ebp),%eax
c01060f3:	c1 e0 07             	shl    $0x7,%eax
c01060f6:	89 c2                	mov    %eax,%edx
c01060f8:	0f b7 45 f8          	movzwl -0x8(%ebp),%eax
c01060fc:	c1 e0 04             	shl    $0x4,%eax
c01060ff:	09 c2                	or     %eax,%edx
c0106101:	0f b7 45 f4          	movzwl -0xc(%ebp),%eax
c0106105:	09 d0                	or     %edx,%eax
c0106107:	c1 e0 08             	shl    $0x8,%eax
c010610a:	66 a3 00 b0 10 c0    	mov    %ax,0xc010b000
}
c0106110:	90                   	nop
c0106111:	c9                   	leave  
c0106112:	c3                   	ret    

c0106113 <vga_put_str>:

void vga_put_str(char* str)
{
c0106113:	55                   	push   %ebp
c0106114:	89 e5                	mov    %esp,%ebp
c0106116:	83 ec 08             	sub    $0x8,%esp
    while (*str != '\0')
c0106119:	eb 19                	jmp    c0106134 <vga_put_str+0x21>
    {
        vga_put_char(*str);
c010611b:	8b 45 08             	mov    0x8(%ebp),%eax
c010611e:	0f b6 00             	movzbl (%eax),%eax
c0106121:	0f be c0             	movsbl %al,%eax
c0106124:	83 ec 0c             	sub    $0xc,%esp
c0106127:	50                   	push   %eax
c0106128:	e8 f1 fe ff ff       	call   c010601e <vga_put_char>
c010612d:	83 c4 10             	add    $0x10,%esp
        str++;
c0106130:	83 45 08 01          	addl   $0x1,0x8(%ebp)
    while (*str != '\0')
c0106134:	8b 45 08             	mov    0x8(%ebp),%eax
c0106137:	0f b6 00             	movzbl (%eax),%eax
c010613a:	84 c0                	test   %al,%al
c010613c:	75 dd                	jne    c010611b <vga_put_str+0x8>
    }
}
c010613e:	90                   	nop
c010613f:	90                   	nop
c0106140:	c9                   	leave  
c0106141:	c3                   	ret    

c0106142 <vga_clear>:

void vga_clear()
{
c0106142:	55                   	push   %ebp
c0106143:	89 e5                	mov    %esp,%ebp
c0106145:	83 ec 10             	sub    $0x10,%esp
  
    for(int i = 0; i < WIDTH * HIGHT; i++)
c0106148:	c7 45 fc 00 00 00 00 	movl   $0x0,-0x4(%ebp)
c010614f:	eb 1b                	jmp    c010616c <vga_clear+0x2a>
        *(video + i) = theme_color;
c0106151:	8b 15 0c b0 10 c0    	mov    0xc010b00c,%edx
c0106157:	8b 45 fc             	mov    -0x4(%ebp),%eax
c010615a:	01 c0                	add    %eax,%eax
c010615c:	01 c2                	add    %eax,%edx
c010615e:	0f b7 05 00 b0 10 c0 	movzwl 0xc010b000,%eax
c0106165:	66 89 02             	mov    %ax,(%edx)
    for(int i = 0; i < WIDTH * HIGHT; i++)
c0106168:	83 45 fc 01          	addl   $0x1,-0x4(%ebp)
c010616c:	81 7d fc cf 07 00 00 	cmpl   $0x7cf,-0x4(%ebp)
c0106173:	7e dc                	jle    c0106151 <vga_clear+0xf>

    XPOS = 0;
c0106175:	c7 05 08 b0 10 c0 00 	movl   $0x0,0xc010b008
c010617c:	00 00 00 
    YPOS = 0;
c010617f:	c7 05 04 b0 10 c0 00 	movl   $0x0,0xc010b004
c0106186:	00 00 00 
}
c0106189:	90                   	nop
c010618a:	c9                   	leave  
c010618b:	c3                   	ret    

c010618c <vga_scrollup>:

void vga_scrollup()
{
c010618c:	55                   	push   %ebp
c010618d:	89 e5                	mov    %esp,%ebp
c010618f:	83 ec 10             	sub    $0x10,%esp
    unsigned int last_line = WIDTH * (HIGHT - 1);
c0106192:	c7 45 f4 80 07 00 00 	movl   $0x780,-0xc(%ebp)
    for (unsigned int i = 0; i < last_line; i++) {
c0106199:	c7 45 fc 00 00 00 00 	movl   $0x0,-0x4(%ebp)
c01061a0:	eb 27                	jmp    c01061c9 <vga_scrollup+0x3d>
        *(video + i) = *(video + WIDTH + i);
c01061a2:	8b 15 0c b0 10 c0    	mov    0xc010b00c,%edx
c01061a8:	8b 45 fc             	mov    -0x4(%ebp),%eax
c01061ab:	83 c0 50             	add    $0x50,%eax
c01061ae:	01 c0                	add    %eax,%eax
c01061b0:	01 d0                	add    %edx,%eax
c01061b2:	8b 0d 0c b0 10 c0    	mov    0xc010b00c,%ecx
c01061b8:	8b 55 fc             	mov    -0x4(%ebp),%edx
c01061bb:	01 d2                	add    %edx,%edx
c01061bd:	01 ca                	add    %ecx,%edx
c01061bf:	0f b7 00             	movzwl (%eax),%eax
c01061c2:	66 89 02             	mov    %ax,(%edx)
    for (unsigned int i = 0; i < last_line; i++) {
c01061c5:	83 45 fc 01          	addl   $0x1,-0x4(%ebp)
c01061c9:	8b 45 fc             	mov    -0x4(%ebp),%eax
c01061cc:	3b 45 f4             	cmp    -0xc(%ebp),%eax
c01061cf:	72 d1                	jb     c01061a2 <vga_scrollup+0x16>
    }
    for (unsigned int i = 0; i < WIDTH; i++) {
c01061d1:	c7 45 f8 00 00 00 00 	movl   $0x0,-0x8(%ebp)
c01061d8:	eb 20                	jmp    c01061fa <vga_scrollup+0x6e>
        *(video + i + last_line) = theme_color;
c01061da:	8b 15 0c b0 10 c0    	mov    0xc010b00c,%edx
c01061e0:	8b 4d f8             	mov    -0x8(%ebp),%ecx
c01061e3:	8b 45 f4             	mov    -0xc(%ebp),%eax
c01061e6:	01 c8                	add    %ecx,%eax
c01061e8:	01 c0                	add    %eax,%eax
c01061ea:	01 c2                	add    %eax,%edx
c01061ec:	0f b7 05 00 b0 10 c0 	movzwl 0xc010b000,%eax
c01061f3:	66 89 02             	mov    %ax,(%edx)
    for (unsigned int i = 0; i < WIDTH; i++) {
c01061f6:	83 45 f8 01          	addl   $0x1,-0x8(%ebp)
c01061fa:	83 7d f8 4f          	cmpl   $0x4f,-0x8(%ebp)
c01061fe:	76 da                	jbe    c01061da <vga_scrollup+0x4e>
    }
    YPOS = YPOS == 0 ? 0 : HIGHT - 1;
c0106200:	a1 04 b0 10 c0       	mov    0xc010b004,%eax
c0106205:	85 c0                	test   %eax,%eax
c0106207:	75 07                	jne    c0106210 <vga_scrollup+0x84>
c0106209:	b8 00 00 00 00       	mov    $0x0,%eax
c010620e:	eb 05                	jmp    c0106215 <vga_scrollup+0x89>
c0106210:	b8 18 00 00 00       	mov    $0x18,%eax
c0106215:	a3 04 b0 10 c0       	mov    %eax,0xc010b004
c010621a:	90                   	nop
c010621b:	c9                   	leave  
c010621c:	c3                   	ret    

c010621d <cpu_rcr3>:
{
    asm("mov %0, %%cr3" ::"r"(v));
}

static inline reg32 cpu_rcr3()
{
c010621d:	55                   	push   %ebp
c010621e:	89 e5                	mov    %esp,%ebp
c0106220:	83 ec 10             	sub    $0x10,%esp
    uintptr_t val;
    asm volatile("movl %%cr3,%0" : "=r" (val));
c0106223:	0f 20 d8             	mov    %cr3,%eax
c0106226:	89 45 fc             	mov    %eax,-0x4(%ebp)
    return val;
c0106229:	8b 45 fc             	mov    -0x4(%ebp),%eax
}
c010622c:	c9                   	leave  
c010622d:	c3                   	ret    

c010622e <cpu_reflags>:

static inline reg32 cpu_reflags()
{
c010622e:	55                   	push   %ebp
c010622f:	89 e5                	mov    %esp,%ebp
c0106231:	83 ec 10             	sub    $0x10,%esp
    uintptr_t val;
    asm volatile(
c0106234:	9c                   	pushf  
c0106235:	58                   	pop    %eax
c0106236:	89 45 fc             	mov    %eax,-0x4(%ebp)
        "pushf\n"
        "popl %0\n"
        :"=r"(val)::);
    return val;
c0106239:	8b 45 fc             	mov    -0x4(%ebp),%eax
}
c010623c:	c9                   	leave  
c010623d:	c3                   	ret    

c010623e <_vir_kernel_init>:
/* Forward declarations. */
void _vir_kernel_init (unsigned long addr);
extern void __proc0(); /* proc0.c */

void _vir_kernel_init(unsigned long addr)
{
c010623e:	55                   	push   %ebp
c010623f:	89 e5                	mov    %esp,%ebp
c0106241:	57                   	push   %edi
c0106242:	56                   	push   %esi
c0106243:	53                   	push   %ebx
c0106244:	81 ec bc 00 00 00    	sub    $0xbc,%esp
    multiboot_info_t *mbi;
    mbi = (multiboot_info_t *) addr;
c010624a:	8b 45 08             	mov    0x8(%ebp),%eax
c010624d:	89 45 d8             	mov    %eax,-0x28(%ebp)
    multiboot_memory_map_t* map = (multiboot_memory_map_t*)mbi->mmap_addr;
c0106250:	8b 45 d8             	mov    -0x28(%ebp),%eax
c0106253:	8b 40 30             	mov    0x30(%eax),%eax
c0106256:	89 45 d4             	mov    %eax,-0x2c(%ebp)
    _init_idt();
c0106259:	e8 a5 2b 00 00       	call   c0108e03 <_init_idt>
    pmm_init(MEM_1MB + (mbi->mem_upper << 10));
c010625e:	8b 45 d8             	mov    -0x28(%ebp),%eax
c0106261:	8b 40 08             	mov    0x8(%eax),%eax
c0106264:	c1 e0 0a             	shl    $0xa,%eax
c0106267:	05 00 00 10 00       	add    $0x100000,%eax
c010626c:	83 ec 0c             	sub    $0xc,%esp
c010626f:	50                   	push   %eax
c0106270:	e8 5d 04 00 00       	call   c01066d2 <pmm_init>
c0106275:	83 c4 10             	add    $0x10,%esp
    vmm_init();
c0106278:	e8 42 11 00 00       	call   c01073bf <vmm_init>

    init_vga_buffer();
c010627d:	e8 7e fd ff ff       	call   c0106000 <init_vga_buffer>
    vga_set_show(0,VGA_COLOR_BLACK,VGA_COLOR_LIGHT_WHITE);
c0106282:	83 ec 04             	sub    $0x4,%esp
c0106285:	6a 0f                	push   $0xf
c0106287:	6a 00                	push   $0x0
c0106289:	6a 00                	push   $0x0
c010628b:	e8 44 fe ff ff       	call   c01060d4 <vga_set_show>
c0106290:	83 c4 10             	add    $0x10,%esp
    /* Clear the screen. */
    vga_clear();
c0106293:	e8 aa fe ff ff       	call   c0106142 <vga_clear>

    __kernel_ptd = cpu_rcr3();
c0106298:	e8 80 ff ff ff       	call   c010621d <cpu_rcr3>
c010629d:	a3 20 b0 10 c0       	mov    %eax,0xc010b020

    tmp = (struct m_pcb){ .page_table = __kernel_ptd };
c01062a2:	8b 35 20 b0 10 c0    	mov    0xc010b020,%esi
c01062a8:	bb 40 b0 10 c0       	mov    $0xc010b040,%ebx
c01062ad:	b8 00 00 00 00       	mov    $0x0,%eax
c01062b2:	ba 1b 00 00 00       	mov    $0x1b,%edx
c01062b7:	89 df                	mov    %ebx,%edi
c01062b9:	89 d1                	mov    %edx,%ecx
c01062bb:	f3 ab                	rep stos %eax,%es:(%edi)
c01062bd:	89 35 a4 b0 10 c0    	mov    %esi,0xc010b0a4

    __current = &tmp;
c01062c3:	c7 05 80 c1 d0 c0 40 	movl   $0xc010b040,0xc0d0c180
c01062ca:	b0 10 c0 
    // }

    /* Set MBI to the address of the Multiboot information structure. */

    /* Print out the flags. */
    kprintf("flags = 0x%x\n", (unsigned) mbi->flags);
c01062cd:	8b 45 d8             	mov    -0x28(%ebp),%eax
c01062d0:	8b 00                	mov    (%eax),%eax
c01062d2:	83 ec 08             	sub    $0x8,%esp
c01062d5:	50                   	push   %eax
c01062d6:	68 00 e0 d0 c0       	push   $0xc0d0e000
c01062db:	e8 e0 3e 00 00       	call   c010a1c0 <kprintf>
c01062e0:	83 c4 10             	add    $0x10,%esp

    /* Are mem_* valid? */
    if (CHECK_FLAG(mbi->flags, 0))
c01062e3:	8b 45 d8             	mov    -0x28(%ebp),%eax
c01062e6:	8b 00                	mov    (%eax),%eax
c01062e8:	83 e0 01             	and    $0x1,%eax
c01062eb:	85 c0                	test   %eax,%eax
c01062ed:	74 1e                	je     c010630d <_vir_kernel_init+0xcf>
        kprintf("mem_lower = %uKB, mem_upper = %uKB\n",(unsigned) mbi->mem_lower, (unsigned) mbi->mem_upper);
c01062ef:	8b 45 d8             	mov    -0x28(%ebp),%eax
c01062f2:	8b 50 08             	mov    0x8(%eax),%edx
c01062f5:	8b 45 d8             	mov    -0x28(%ebp),%eax
c01062f8:	8b 40 04             	mov    0x4(%eax),%eax
c01062fb:	83 ec 04             	sub    $0x4,%esp
c01062fe:	52                   	push   %edx
c01062ff:	50                   	push   %eax
c0106300:	68 10 e0 d0 c0       	push   $0xc0d0e010
c0106305:	e8 b6 3e 00 00       	call   c010a1c0 <kprintf>
c010630a:	83 c4 10             	add    $0x10,%esp
    
    unsigned int map_size = mbi->mmap_length / sizeof(multiboot_memory_map_t);
c010630d:	8b 45 d8             	mov    -0x28(%ebp),%eax
c0106310:	8b 40 2c             	mov    0x2c(%eax),%eax
c0106313:	ba ab aa aa aa       	mov    $0xaaaaaaab,%edx
c0106318:	f7 e2                	mul    %edx
c010631a:	89 d0                	mov    %edx,%eax
c010631c:	c1 e8 04             	shr    $0x4,%eax
c010631f:	89 45 d0             	mov    %eax,-0x30(%ebp)
    for (unsigned int i = 0; i < map_size; i++) {
c0106322:	c7 45 e4 00 00 00 00 	movl   $0x0,-0x1c(%ebp)
c0106329:	e9 33 01 00 00       	jmp    c0106461 <_vir_kernel_init+0x223>
        multiboot_memory_map_t mmap = map[i];
c010632e:	8b 55 e4             	mov    -0x1c(%ebp),%edx
c0106331:	89 d0                	mov    %edx,%eax
c0106333:	01 c0                	add    %eax,%eax
c0106335:	01 d0                	add    %edx,%eax
c0106337:	c1 e0 03             	shl    $0x3,%eax
c010633a:	89 c2                	mov    %eax,%edx
c010633c:	8b 45 d4             	mov    -0x2c(%ebp),%eax
c010633f:	01 d0                	add    %edx,%eax
c0106341:	8b 10                	mov    (%eax),%edx
c0106343:	89 95 38 ff ff ff    	mov    %edx,-0xc8(%ebp)
c0106349:	8b 50 04             	mov    0x4(%eax),%edx
c010634c:	89 95 3c ff ff ff    	mov    %edx,-0xc4(%ebp)
c0106352:	8b 50 08             	mov    0x8(%eax),%edx
c0106355:	89 95 40 ff ff ff    	mov    %edx,-0xc0(%ebp)
c010635b:	8b 50 0c             	mov    0xc(%eax),%edx
c010635e:	89 95 44 ff ff ff    	mov    %edx,-0xbc(%ebp)
c0106364:	8b 50 10             	mov    0x10(%eax),%edx
c0106367:	89 95 48 ff ff ff    	mov    %edx,-0xb8(%ebp)
c010636d:	8b 40 14             	mov    0x14(%eax),%eax
c0106370:	89 85 4c ff ff ff    	mov    %eax,-0xb4(%ebp)
        kprintf("[MM] Base: 0x%x, len: %u KiB, type: %u\n",
               map[i].addr_low,
               map[i].len_low >> 10,
               map[i].type);
c0106376:	8b 55 e4             	mov    -0x1c(%ebp),%edx
c0106379:	89 d0                	mov    %edx,%eax
c010637b:	01 c0                	add    %eax,%eax
c010637d:	01 d0                	add    %edx,%eax
c010637f:	c1 e0 03             	shl    $0x3,%eax
c0106382:	89 c2                	mov    %eax,%edx
c0106384:	8b 45 d4             	mov    -0x2c(%ebp),%eax
c0106387:	01 d0                	add    %edx,%eax
        kprintf("[MM] Base: 0x%x, len: %u KiB, type: %u\n",
c0106389:	8b 50 14             	mov    0x14(%eax),%edx
               map[i].len_low >> 10,
c010638c:	8b 4d e4             	mov    -0x1c(%ebp),%ecx
c010638f:	89 c8                	mov    %ecx,%eax
c0106391:	01 c0                	add    %eax,%eax
c0106393:	01 c8                	add    %ecx,%eax
c0106395:	c1 e0 03             	shl    $0x3,%eax
c0106398:	89 c1                	mov    %eax,%ecx
c010639a:	8b 45 d4             	mov    -0x2c(%ebp),%eax
c010639d:	01 c8                	add    %ecx,%eax
c010639f:	8b 40 0c             	mov    0xc(%eax),%eax
        kprintf("[MM] Base: 0x%x, len: %u KiB, type: %u\n",
c01063a2:	c1 e8 0a             	shr    $0xa,%eax
c01063a5:	89 c3                	mov    %eax,%ebx
               map[i].addr_low,
c01063a7:	8b 4d e4             	mov    -0x1c(%ebp),%ecx
c01063aa:	89 c8                	mov    %ecx,%eax
c01063ac:	01 c0                	add    %eax,%eax
c01063ae:	01 c8                	add    %ecx,%eax
c01063b0:	c1 e0 03             	shl    $0x3,%eax
c01063b3:	89 c1                	mov    %eax,%ecx
c01063b5:	8b 45 d4             	mov    -0x2c(%ebp),%eax
c01063b8:	01 c8                	add    %ecx,%eax
        kprintf("[MM] Base: 0x%x, len: %u KiB, type: %u\n",
c01063ba:	8b 40 04             	mov    0x4(%eax),%eax
c01063bd:	52                   	push   %edx
c01063be:	53                   	push   %ebx
c01063bf:	50                   	push   %eax
c01063c0:	68 34 e0 d0 c0       	push   $0xc0d0e034
c01063c5:	e8 f6 3d 00 00       	call   c010a1c0 <kprintf>
c01063ca:	83 c4 10             	add    $0x10,%esp
        if (mmap.type == MULTIBOOT_MEMORY_AVAILABLE) {
c01063cd:	8b 85 4c ff ff ff    	mov    -0xb4(%ebp),%eax
c01063d3:	83 f8 01             	cmp    $0x1,%eax
c01063d6:	0f 85 81 00 00 00    	jne    c010645d <_vir_kernel_init+0x21f>
            // 整数向上取整除法
            uintptr_t pg = map[i].addr_low + 0x0fffU;
c01063dc:	8b 55 e4             	mov    -0x1c(%ebp),%edx
c01063df:	89 d0                	mov    %edx,%eax
c01063e1:	01 c0                	add    %eax,%eax
c01063e3:	01 d0                	add    %edx,%eax
c01063e5:	c1 e0 03             	shl    $0x3,%eax
c01063e8:	89 c2                	mov    %eax,%edx
c01063ea:	8b 45 d4             	mov    -0x2c(%ebp),%eax
c01063ed:	01 d0                	add    %edx,%eax
c01063ef:	8b 40 04             	mov    0x4(%eax),%eax
c01063f2:	05 ff 0f 00 00       	add    $0xfff,%eax
c01063f7:	89 45 bc             	mov    %eax,-0x44(%ebp)
            pmm_mark_chunk_free(pg >> 12, map[i].len_low >> 12);
c01063fa:	8b 55 e4             	mov    -0x1c(%ebp),%edx
c01063fd:	89 d0                	mov    %edx,%eax
c01063ff:	01 c0                	add    %eax,%eax
c0106401:	01 d0                	add    %edx,%eax
c0106403:	c1 e0 03             	shl    $0x3,%eax
c0106406:	89 c2                	mov    %eax,%edx
c0106408:	8b 45 d4             	mov    -0x2c(%ebp),%eax
c010640b:	01 d0                	add    %edx,%eax
c010640d:	8b 40 0c             	mov    0xc(%eax),%eax
c0106410:	c1 e8 0c             	shr    $0xc,%eax
c0106413:	89 c2                	mov    %eax,%edx
c0106415:	8b 45 bc             	mov    -0x44(%ebp),%eax
c0106418:	c1 e8 0c             	shr    $0xc,%eax
c010641b:	83 ec 08             	sub    $0x8,%esp
c010641e:	52                   	push   %edx
c010641f:	50                   	push   %eax
c0106420:	e8 92 03 00 00       	call   c01067b7 <pmm_mark_chunk_free>
c0106425:	83 c4 10             	add    $0x10,%esp
            kprintf("[MM] Freed %u pages start from 0x%x\n",
c0106428:	8b 45 bc             	mov    -0x44(%ebp),%eax
c010642b:	25 00 f0 ff ff       	and    $0xfffff000,%eax
c0106430:	89 c1                	mov    %eax,%ecx
                   map[i].len_low >> 12,
c0106432:	8b 55 e4             	mov    -0x1c(%ebp),%edx
c0106435:	89 d0                	mov    %edx,%eax
c0106437:	01 c0                	add    %eax,%eax
c0106439:	01 d0                	add    %edx,%eax
c010643b:	c1 e0 03             	shl    $0x3,%eax
c010643e:	89 c2                	mov    %eax,%edx
c0106440:	8b 45 d4             	mov    -0x2c(%ebp),%eax
c0106443:	01 d0                	add    %edx,%eax
c0106445:	8b 40 0c             	mov    0xc(%eax),%eax
            kprintf("[MM] Freed %u pages start from 0x%x\n",
c0106448:	c1 e8 0c             	shr    $0xc,%eax
c010644b:	83 ec 04             	sub    $0x4,%esp
c010644e:	51                   	push   %ecx
c010644f:	50                   	push   %eax
c0106450:	68 5c e0 d0 c0       	push   $0xc0d0e05c
c0106455:	e8 66 3d 00 00       	call   c010a1c0 <kprintf>
c010645a:	83 c4 10             	add    $0x10,%esp
    for (unsigned int i = 0; i < map_size; i++) {
c010645d:	83 45 e4 01          	addl   $0x1,-0x1c(%ebp)
c0106461:	8b 45 e4             	mov    -0x1c(%ebp),%eax
c0106464:	3b 45 d0             	cmp    -0x30(%ebp),%eax
c0106467:	0f 82 c1 fe ff ff    	jb     c010632e <_vir_kernel_init+0xf0>
                   pg & ~0x0fffU);
        }
    }

    // 将内核占据的页设为已占用
    size_t pg_count = (uintptr_t)(&virkernel_end  - &virkernel_start) >> 12;
c010646d:	b8 00 90 d1 c0       	mov    $0xc0d19000,%eax
c0106472:	2d 00 60 10 c0       	sub    $0xc0106000,%eax
c0106477:	c1 e8 0c             	shr    $0xc,%eax
c010647a:	89 45 cc             	mov    %eax,-0x34(%ebp)
    pmm_mark_chunk_occupied(KERNEL_PID, V2P(&virkernel_start) >> 12, pg_count, 0);
c010647d:	b8 00 60 10 c0       	mov    $0xc0106000,%eax
c0106482:	05 00 00 00 40       	add    $0x40000000,%eax
c0106487:	c1 e8 0c             	shr    $0xc,%eax
c010648a:	6a 00                	push   $0x0
c010648c:	ff 75 cc             	push   -0x34(%ebp)
c010648f:	50                   	push   %eax
c0106490:	6a ff                	push   $0xffffffff
c0106492:	e8 63 03 00 00       	call   c01067fa <pmm_mark_chunk_occupied>
c0106497:	83 c4 10             	add    $0x10,%esp
    kprintf("[MM] Allocated %d pages for kernel.\n", pg_count);
c010649a:	83 ec 08             	sub    $0x8,%esp
c010649d:	ff 75 cc             	push   -0x34(%ebp)
c01064a0:	68 84 e0 d0 c0       	push   $0xc0d0e084
c01064a5:	e8 16 3d 00 00       	call   c010a1c0 <kprintf>
c01064aa:	83 c4 10             	add    $0x10,%esp

    size_t vga_buf_pgs = VGA_BUFFER_SIZE >> 12;
c01064ad:	c7 45 c8 01 00 00 00 	movl   $0x1,-0x38(%ebp)
    
    // 首先，标记VGA部分为已占用
    pmm_mark_chunk_occupied(KERNEL_PID, VIDEO >> 12, vga_buf_pgs, 0);
c01064b4:	6a 00                	push   $0x0
c01064b6:	ff 75 c8             	push   -0x38(%ebp)
c01064b9:	68 b8 00 00 00       	push   $0xb8
c01064be:	6a ff                	push   $0xffffffff
c01064c0:	e8 35 03 00 00       	call   c01067fa <pmm_mark_chunk_occupied>
c01064c5:	83 c4 10             	add    $0x10,%esp
    
    // 重映射VGA文本缓冲区（以后会变成显存，i.e., framebuffer）
    for (size_t i = 0; i < vga_buf_pgs; i++)
c01064c8:	c7 45 e0 00 00 00 00 	movl   $0x0,-0x20(%ebp)
c01064cf:	eb 32                	jmp    c0106503 <_vir_kernel_init+0x2c5>
    {
        pt_t* test = vmm_map_page(KERNEL_PID, VGA_BUFFER_VADDR + (i << 12), VIDEO + (i << 12), PG_PREM_RW, PG_PREM_RW);
c01064d1:	8b 45 e0             	mov    -0x20(%ebp),%eax
c01064d4:	c1 e0 0c             	shl    $0xc,%eax
c01064d7:	05 00 80 0b 00       	add    $0xb8000,%eax
c01064dc:	89 c2                	mov    %eax,%edx
c01064de:	8b 45 e0             	mov    -0x20(%ebp),%eax
c01064e1:	c1 e0 0c             	shl    $0xc,%eax
c01064e4:	2d 00 00 00 50       	sub    $0x50000000,%eax
c01064e9:	83 ec 0c             	sub    $0xc,%esp
c01064ec:	6a 03                	push   $0x3
c01064ee:	6a 03                	push   $0x3
c01064f0:	52                   	push   %edx
c01064f1:	50                   	push   %eax
c01064f2:	6a ff                	push   $0xffffffff
c01064f4:	e8 87 10 00 00       	call   c0107580 <vmm_map_page>
c01064f9:	83 c4 20             	add    $0x20,%esp
c01064fc:	89 45 c0             	mov    %eax,-0x40(%ebp)
    for (size_t i = 0; i < vga_buf_pgs; i++)
c01064ff:	83 45 e0 01          	addl   $0x1,-0x20(%ebp)
c0106503:	8b 45 e0             	mov    -0x20(%ebp),%eax
c0106506:	3b 45 c8             	cmp    -0x38(%ebp),%eax
c0106509:	72 c6                	jb     c01064d1 <_vir_kernel_init+0x293>
        //kprintf("[MM] vga vaddr %x\n", test);
    }
    set_vga_buffer(VGA_BUFFER_VADDR);
c010650b:	83 ec 0c             	sub    $0xc,%esp
c010650e:	68 00 00 00 b0       	push   $0xb0000000
c0106513:	e8 f8 fa ff ff       	call   c0106010 <set_vga_buffer>
c0106518:	83 c4 10             	add    $0x10,%esp
    kprintf("[MM] Mapped VGA to %x.\n", VGA_BUFFER_VADDR);
c010651b:	83 ec 08             	sub    $0x8,%esp
c010651e:	68 00 00 00 b0       	push   $0xb0000000
c0106523:	68 a9 e0 d0 c0       	push   $0xc0d0e0a9
c0106528:	e8 93 3c 00 00       	call   c010a1c0 <kprintf>
c010652d:	83 c4 10             	add    $0x10,%esp

    // 为内核创建一个专属栈空间。
    for (size_t i = 0; i < (KSTACK_SIZE >> 12); i++) {
c0106530:	c7 45 dc 00 00 00 00 	movl   $0x0,-0x24(%ebp)
c0106537:	eb 26                	jmp    c010655f <_vir_kernel_init+0x321>
        pt_t* test = vmm_alloc_page(KERNEL_PID, (void*)KSTACK_START + (i << 12), NULL, PG_PREM_RW, PG_PREM_RW);
c0106539:	8b 45 dc             	mov    -0x24(%ebp),%eax
c010653c:	c1 e0 0c             	shl    $0xc,%eax
c010653f:	2d 00 00 41 00       	sub    $0x410000,%eax
c0106544:	83 ec 0c             	sub    $0xc,%esp
c0106547:	6a 03                	push   $0x3
c0106549:	6a 03                	push   $0x3
c010654b:	6a 00                	push   $0x0
c010654d:	50                   	push   %eax
c010654e:	6a ff                	push   $0xffffffff
c0106550:	e8 d2 11 00 00       	call   c0107727 <vmm_alloc_page>
c0106555:	83 c4 20             	add    $0x20,%esp
c0106558:	89 45 c4             	mov    %eax,-0x3c(%ebp)
    for (size_t i = 0; i < (KSTACK_SIZE >> 12); i++) {
c010655b:	83 45 dc 01          	addl   $0x1,-0x24(%ebp)
c010655f:	83 7d dc 0f          	cmpl   $0xf,-0x24(%ebp)
c0106563:	76 d4                	jbe    c0106539 <_vir_kernel_init+0x2fb>
        //kprintf("[MM] kernel paddr %x", test);
    }
    kprintf("[MM] Allocated %d pages for stack start at 0x%x\n", KSTACK_SIZE>>12, KSTACK_START);
c0106565:	83 ec 04             	sub    $0x4,%esp
c0106568:	68 00 00 bf ff       	push   $0xffbf0000
c010656d:	6a 10                	push   $0x10
c010656f:	68 c4 e0 d0 c0       	push   $0xc0d0e0c4
c0106574:	e8 47 3c 00 00       	call   c010a1c0 <kprintf>
c0106579:	83 c4 10             	add    $0x10,%esp

    //give malloc init
    //mem_init();
    //kprintf("[MM] Malloc Init Success \n");
    kprintf("[KERNEL] === Initialization Done === \n\n");
c010657c:	83 ec 0c             	sub    $0xc,%esp
c010657f:	68 f8 e0 d0 c0       	push   $0xc0d0e0f8
c0106584:	e8 37 3c 00 00       	call   c010a1c0 <kprintf>
c0106589:	83 c4 10             	add    $0x10,%esp

    vga_put_str("MELOX OS\n");
c010658c:	83 ec 0c             	sub    $0xc,%esp
c010658f:	68 20 e1 d0 c0       	push   $0xc0d0e120
c0106594:	e8 7a fb ff ff       	call   c0106113 <vga_put_str>
c0106599:	83 c4 10             	add    $0x10,%esp
     //__asm__("int $1");
}
c010659c:	90                   	nop
c010659d:	8d 65 f4             	lea    -0xc(%ebp),%esp
c01065a0:	5b                   	pop    %ebx
c01065a1:	5e                   	pop    %esi
c01065a2:	5f                   	pop    %edi
c01065a3:	5d                   	pop    %ebp
c01065a4:	c3                   	ret    

c01065a5 <_kernel_main>:
//     //kprintf("[KERNEL] === Post Initialization Done === \n\n");
// }

void creat_proc0();
void _kernel_main()
{
c01065a5:	55                   	push   %ebp
c01065a6:	89 e5                	mov    %esp,%ebp
c01065a8:	81 ec 18 01 00 00    	sub    $0x118,%esp
    char* buf[64];
    
    kprintf("We are now running in virtual address space!\n\n");
c01065ae:	83 ec 0c             	sub    $0xc,%esp
c01065b1:	68 2c e1 d0 c0       	push   $0xc0d0e12c
c01065b6:	e8 05 3c 00 00       	call   c010a1c0 <kprintf>
c01065bb:	83 c4 10             	add    $0x10,%esp
    
    cpu_get_brand(buf);
c01065be:	83 ec 0c             	sub    $0xc,%esp
c01065c1:	8d 85 f4 fe ff ff    	lea    -0x10c(%ebp),%eax
c01065c7:	50                   	push   %eax
c01065c8:	e8 10 25 00 00       	call   c0108add <cpu_get_brand>
c01065cd:	83 c4 10             	add    $0x10,%esp
    kprintf("CPU: %s\n\n", buf);
c01065d0:	83 ec 08             	sub    $0x8,%esp
c01065d3:	8d 85 f4 fe ff ff    	lea    -0x10c(%ebp),%eax
c01065d9:	50                   	push   %eax
c01065da:	68 5b e1 d0 c0       	push   $0xc0d0e15b
c01065df:	e8 dc 3b 00 00       	call   c010a1c0 <kprintf>
c01065e4:	83 c4 10             	add    $0x10,%esp

    uintptr_t k_start = vmm_v2p(&virkernel_start);
c01065e7:	83 ec 0c             	sub    $0xc,%esp
c01065ea:	68 00 60 10 c0       	push   $0xc0106000
c01065ef:	e8 78 14 00 00       	call   c0107a6c <vmm_v2p>
c01065f4:	83 c4 10             	add    $0x10,%esp
c01065f7:	89 45 f4             	mov    %eax,-0xc(%ebp)
    kprintf("The kernel's base address mapping: %x->%x\n", &virkernel_start, k_start);
c01065fa:	83 ec 04             	sub    $0x4,%esp
c01065fd:	ff 75 f4             	push   -0xc(%ebp)
c0106600:	68 00 60 10 c0       	push   $0xc0106000
c0106605:	68 68 e1 d0 c0       	push   $0xc0d0e168
c010660a:	e8 b1 3b 00 00       	call   c010a1c0 <kprintf>
c010660f:	83 c4 10             	add    $0x10,%esp

    // timer_init();
    // init_keyboard();

    //now we move ourself into proc0, and fork proc1
    if(sched_init())
c0106612:	e8 40 37 00 00       	call   c0109d57 <sched_init>
c0106617:	85 c0                	test   %eax,%eax
c0106619:	74 05                	je     c0106620 <_kernel_main+0x7b>
        //kprintf("process sched init!");

    creat_proc0();
c010661b:	e8 03 00 00 00       	call   c0106623 <creat_proc0>
}
c0106620:	90                   	nop
c0106621:	c9                   	leave  
c0106622:	c3                   	ret    

c0106623 <creat_proc0>:


void creat_proc0()
{
c0106623:	55                   	push   %ebp
c0106624:	89 e5                	mov    %esp,%ebp
c0106626:	57                   	push   %edi
c0106627:	53                   	push   %ebx
c0106628:	81 ec b0 00 00 00    	sub    $0xb0,%esp
    /**
     *      1. 在创建proc0进程前关闭中断
     *
     */

    init_proc(&proc0);
c010662e:	83 ec 0c             	sub    $0xc,%esp
c0106631:	8d 45 8c             	lea    -0x74(%ebp),%eax
c0106634:	50                   	push   %eax
c0106635:	e8 7c 30 00 00       	call   c01096b6 <init_proc>
c010663a:	83 c4 10             	add    $0x10,%esp
    proc0.intr_contxt = (isr_param){ 
                                  .cs = KCODE_SEG,
                                  .eip = (void*)__proc0,
                                  .ss = KDATA_SEG,
                                  .eflags = cpu_reflags() };
c010663d:	e8 ec fb ff ff       	call   c010622e <cpu_reflags>
c0106642:	89 c3                	mov    %eax,%ebx
    proc0.intr_contxt = (isr_param){ 
c0106644:	8d 55 94             	lea    -0x6c(%ebp),%edx
c0106647:	b8 00 00 00 00       	mov    $0x0,%eax
c010664c:	b9 0f 00 00 00       	mov    $0xf,%ecx
c0106651:	89 d7                	mov    %edx,%edi
c0106653:	f3 ab                	rep stos %eax,%es:(%edi)
c0106655:	b8 7d 7d 10 c0       	mov    $0xc0107d7d,%eax
c010665a:	89 45 bc             	mov    %eax,-0x44(%ebp)
c010665d:	c7 45 c0 08 00 00 00 	movl   $0x8,-0x40(%ebp)
c0106664:	89 5d c4             	mov    %ebx,-0x3c(%ebp)
c0106667:	c7 45 cc 10 00 00 00 	movl   $0x10,-0x34(%ebp)

    // 必须在读取eflags之后禁用。否则当进程被调度时，中断依然是关闭的！
    asm volatile("cli");
c010666e:	fa                   	cli    
    setup_proc_mem(&proc0, PD_REFERENCED);
c010666f:	83 ec 08             	sub    $0x8,%esp
c0106672:	68 00 00 c0 ff       	push   $0xffc00000
c0106677:	8d 45 8c             	lea    -0x74(%ebp),%eax
c010667a:	50                   	push   %eax
c010667b:	e8 e8 31 00 00       	call   c0109868 <setup_proc_mem>
c0106680:	83 c4 10             	add    $0x10,%esp
                 "movl %%esp, %0\n"
                 "movl %%eax, %%cr3\n"
                 "movl %%ebx, %%esp\n"
                 : "=m"(proc0.intr_contxt.registers.esp)// it must have, it give us the correct esp,
                 //so we can soft iret get in to push $0 pos, then we esp + 8 get cs:ip->proc0!
                 : "r"(proc0.page_table),
c0106683:	8b 55 f0             	mov    -0x10(%ebp),%edx
                   "i"(KSATCK_TOP),
                   "i"(KCODE_SEG),
                   "r"(proc0.intr_contxt.eip)
c0106686:	8b 4d bc             	mov    -0x44(%ebp),%ecx
    asm volatile("movl %%cr3, %%eax\n"
c0106689:	0f 20 d8             	mov    %cr3,%eax
c010668c:	89 e3                	mov    %esp,%ebx
c010668e:	0f 22 da             	mov    %edx,%cr3
c0106691:	bc f0 ff bf ff       	mov    $0xffbffff0,%esp
c0106696:	9c                   	pushf  
c0106697:	6a 08                	push   $0x8
c0106699:	51                   	push   %ecx
c010669a:	6a 00                	push   $0x0
c010669c:	6a 00                	push   $0x0
c010669e:	89 65 b0             	mov    %esp,-0x50(%ebp)
c01066a1:	0f 22 d8             	mov    %eax,%cr3
c01066a4:	89 dc                	mov    %ebx,%esp
                 : "%eax", "%ebx", "memory");

    // 向调度器注册进程。
    push_process(&proc0);
c01066a6:	83 ec 0c             	sub    $0xc,%esp
c01066a9:	8d 45 8c             	lea    -0x74(%ebp),%eax
c01066ac:	50                   	push   %eax
c01066ad:	e8 26 38 00 00       	call   c0109ed8 <push_process>
c01066b2:	83 c4 10             	add    $0x10,%esp

    // 由于时钟中断未就绪，我们需要手动通知调度器进行第一次调度。这里也会同时隐式地恢复我们的eflags.IF位
    schedule();
c01066b5:	e8 59 37 00 00       	call   c0109e13 <schedule>

    /* Should not return */
    kprintf("Unexpected Return");
c01066ba:	83 ec 0c             	sub    $0xc,%esp
c01066bd:	68 93 e1 d0 c0       	push   $0xc0d0e193
c01066c2:	e8 f9 3a 00 00       	call   c010a1c0 <kprintf>
c01066c7:	83 c4 10             	add    $0x10,%esp
c01066ca:	90                   	nop
c01066cb:	8d 65 f8             	lea    -0x8(%ebp),%esp
c01066ce:	5b                   	pop    %ebx
c01066cf:	5f                   	pop    %edi
c01066d0:	5d                   	pop    %ebp
c01066d1:	c3                   	ret    

c01066d2 <pmm_init>:

#ifdef MEMSTRUCT
static struct pp_struct pm_table[PM_STRUCT_MAX_SIZE];

void pmm_init(uintptr_t mem_upper_lim)
{
c01066d2:	55                   	push   %ebp
c01066d3:	89 e5                	mov    %esp,%ebp
c01066d5:	83 ec 10             	sub    $0x10,%esp
    pg_lookup_ptr = LOOKUP_START;
c01066d8:	c7 05 c0 b0 10 c0 01 	movl   $0x1,0xc010b0c0
c01066df:	00 00 00 
    max_pg = (PG_ALIGN(mem_upper_lim) >> 12);
c01066e2:	8b 45 08             	mov    0x8(%ebp),%eax
c01066e5:	c1 e8 0c             	shr    $0xc,%eax
c01066e8:	a3 c4 b0 10 c0       	mov    %eax,0xc010b0c4

    for (size_t i = 0; i < PM_STRUCT_MAX_SIZE; i++) {
c01066ed:	c7 45 fc 00 00 00 00 	movl   $0x0,-0x4(%ebp)
c01066f4:	eb 49                	jmp    c010673f <pmm_init+0x6d>
        pm_table[i] = (struct pp_struct) {
c01066f6:	8b 55 fc             	mov    -0x4(%ebp),%edx
c01066f9:	89 d0                	mov    %edx,%eax
c01066fb:	01 c0                	add    %eax,%eax
c01066fd:	01 d0                	add    %edx,%eax
c01066ff:	c1 e0 02             	shl    $0x2,%eax
c0106702:	05 e0 b0 10 c0       	add    $0xc010b0e0,%eax
c0106707:	c7 00 00 00 00 00    	movl   $0x0,(%eax)
c010670d:	8b 55 fc             	mov    -0x4(%ebp),%edx
c0106710:	89 d0                	mov    %edx,%eax
c0106712:	01 c0                	add    %eax,%eax
c0106714:	01 d0                	add    %edx,%eax
c0106716:	c1 e0 02             	shl    $0x2,%eax
c0106719:	05 e4 b0 10 c0       	add    $0xc010b0e4,%eax
c010671e:	c7 00 01 00 00 00    	movl   $0x1,(%eax)
c0106724:	8b 55 fc             	mov    -0x4(%ebp),%edx
c0106727:	89 d0                	mov    %edx,%eax
c0106729:	01 c0                	add    %eax,%eax
c010672b:	01 d0                	add    %edx,%eax
c010672d:	c1 e0 02             	shl    $0x2,%eax
c0106730:	05 e8 b0 10 c0       	add    $0xc010b0e8,%eax
c0106735:	c7 00 00 00 00 00    	movl   $0x0,(%eax)
    for (size_t i = 0; i < PM_STRUCT_MAX_SIZE; i++) {
c010673b:	83 45 fc 01          	addl   $0x1,-0x4(%ebp)
c010673f:	81 7d fc ff ff 0f 00 	cmpl   $0xfffff,-0x4(%ebp)
c0106746:	76 ae                	jbe    c01066f6 <pmm_init+0x24>
            .owner = 0,
            .attr = 0,
            .ref_counts = 1
        };
    }
}
c0106748:	90                   	nop
c0106749:	90                   	nop
c010674a:	c9                   	leave  
c010674b:	c3                   	ret    

c010674c <pmm_mark_page_free>:

void pmm_mark_page_free(uintptr_t ppn)
{
c010674c:	55                   	push   %ebp
c010674d:	89 e5                	mov    %esp,%ebp
    pm_table[ppn].ref_counts = 0;
c010674f:	8b 55 08             	mov    0x8(%ebp),%edx
c0106752:	89 d0                	mov    %edx,%eax
c0106754:	01 c0                	add    %eax,%eax
c0106756:	01 d0                	add    %edx,%eax
c0106758:	c1 e0 02             	shl    $0x2,%eax
c010675b:	05 e4 b0 10 c0       	add    $0xc010b0e4,%eax
c0106760:	c7 00 00 00 00 00    	movl   $0x0,(%eax)
}
c0106766:	90                   	nop
c0106767:	5d                   	pop    %ebp
c0106768:	c3                   	ret    

c0106769 <pmm_mark_page_occupied>:

void pmm_mark_page_occupied(pid_t owner, uintptr_t ppn, pp_attr_t attr)
{
c0106769:	55                   	push   %ebp
c010676a:	89 e5                	mov    %esp,%ebp
c010676c:	83 ec 10             	sub    $0x10,%esp
    pm_table[ppn] = (struct pp_struct) {
c010676f:	8b 55 0c             	mov    0xc(%ebp),%edx
c0106772:	89 d0                	mov    %edx,%eax
c0106774:	01 c0                	add    %eax,%eax
c0106776:	01 d0                	add    %edx,%eax
c0106778:	c1 e0 02             	shl    $0x2,%eax
c010677b:	8d 90 e0 b0 10 c0    	lea    -0x3fef4f20(%eax),%edx
c0106781:	8b 45 08             	mov    0x8(%ebp),%eax
c0106784:	89 02                	mov    %eax,(%edx)
c0106786:	8b 55 0c             	mov    0xc(%ebp),%edx
c0106789:	89 d0                	mov    %edx,%eax
c010678b:	01 c0                	add    %eax,%eax
c010678d:	01 d0                	add    %edx,%eax
c010678f:	c1 e0 02             	shl    $0x2,%eax
c0106792:	05 e4 b0 10 c0       	add    $0xc010b0e4,%eax
c0106797:	c7 00 01 00 00 00    	movl   $0x1,(%eax)
c010679d:	8b 55 0c             	mov    0xc(%ebp),%edx
c01067a0:	89 d0                	mov    %edx,%eax
c01067a2:	01 c0                	add    %eax,%eax
c01067a4:	01 d0                	add    %edx,%eax
c01067a6:	c1 e0 02             	shl    $0x2,%eax
c01067a9:	8d 90 e8 b0 10 c0    	lea    -0x3fef4f18(%eax),%edx
c01067af:	8b 45 10             	mov    0x10(%ebp),%eax
c01067b2:	89 02                	mov    %eax,(%edx)
        .owner = owner,
        .ref_counts = 1,
        .attr = attr
    };
}
c01067b4:	90                   	nop
c01067b5:	c9                   	leave  
c01067b6:	c3                   	ret    

c01067b7 <pmm_mark_chunk_free>:

void pmm_mark_chunk_free(uintptr_t start_ppn, size_t page_count)
{
c01067b7:	55                   	push   %ebp
c01067b8:	89 e5                	mov    %esp,%ebp
c01067ba:	83 ec 10             	sub    $0x10,%esp
    for (size_t i = start_ppn; i < start_ppn + page_count && i < max_pg; i++)
c01067bd:	8b 45 08             	mov    0x8(%ebp),%eax
c01067c0:	89 45 fc             	mov    %eax,-0x4(%ebp)
c01067c3:	eb 1b                	jmp    c01067e0 <pmm_mark_chunk_free+0x29>
    {
        pm_table[i].ref_counts = 0;
c01067c5:	8b 55 fc             	mov    -0x4(%ebp),%edx
c01067c8:	89 d0                	mov    %edx,%eax
c01067ca:	01 c0                	add    %eax,%eax
c01067cc:	01 d0                	add    %edx,%eax
c01067ce:	c1 e0 02             	shl    $0x2,%eax
c01067d1:	05 e4 b0 10 c0       	add    $0xc010b0e4,%eax
c01067d6:	c7 00 00 00 00 00    	movl   $0x0,(%eax)
    for (size_t i = start_ppn; i < start_ppn + page_count && i < max_pg; i++)
c01067dc:	83 45 fc 01          	addl   $0x1,-0x4(%ebp)
c01067e0:	8b 55 08             	mov    0x8(%ebp),%edx
c01067e3:	8b 45 0c             	mov    0xc(%ebp),%eax
c01067e6:	01 d0                	add    %edx,%eax
c01067e8:	39 45 fc             	cmp    %eax,-0x4(%ebp)
c01067eb:	73 0a                	jae    c01067f7 <pmm_mark_chunk_free+0x40>
c01067ed:	a1 c4 b0 10 c0       	mov    0xc010b0c4,%eax
c01067f2:	39 45 fc             	cmp    %eax,-0x4(%ebp)
c01067f5:	72 ce                	jb     c01067c5 <pmm_mark_chunk_free+0xe>
    }
}
c01067f7:	90                   	nop
c01067f8:	c9                   	leave  
c01067f9:	c3                   	ret    

c01067fa <pmm_mark_chunk_occupied>:

void pmm_mark_chunk_occupied(pid_t owner, uint32_t start_ppn, size_t page_count, pp_attr_t attr)
{
c01067fa:	55                   	push   %ebp
c01067fb:	89 e5                	mov    %esp,%ebp
c01067fd:	83 ec 10             	sub    $0x10,%esp
    for (size_t i = start_ppn; i < start_ppn + page_count && i < max_pg; i++)
c0106800:	8b 45 0c             	mov    0xc(%ebp),%eax
c0106803:	89 45 fc             	mov    %eax,-0x4(%ebp)
c0106806:	eb 49                	jmp    c0106851 <pmm_mark_chunk_occupied+0x57>
    {
        pm_table[i] = (struct pp_struct) {
c0106808:	8b 55 fc             	mov    -0x4(%ebp),%edx
c010680b:	89 d0                	mov    %edx,%eax
c010680d:	01 c0                	add    %eax,%eax
c010680f:	01 d0                	add    %edx,%eax
c0106811:	c1 e0 02             	shl    $0x2,%eax
c0106814:	8d 90 e0 b0 10 c0    	lea    -0x3fef4f20(%eax),%edx
c010681a:	8b 45 08             	mov    0x8(%ebp),%eax
c010681d:	89 02                	mov    %eax,(%edx)
c010681f:	8b 55 fc             	mov    -0x4(%ebp),%edx
c0106822:	89 d0                	mov    %edx,%eax
c0106824:	01 c0                	add    %eax,%eax
c0106826:	01 d0                	add    %edx,%eax
c0106828:	c1 e0 02             	shl    $0x2,%eax
c010682b:	05 e4 b0 10 c0       	add    $0xc010b0e4,%eax
c0106830:	c7 00 01 00 00 00    	movl   $0x1,(%eax)
c0106836:	8b 55 fc             	mov    -0x4(%ebp),%edx
c0106839:	89 d0                	mov    %edx,%eax
c010683b:	01 c0                	add    %eax,%eax
c010683d:	01 d0                	add    %edx,%eax
c010683f:	c1 e0 02             	shl    $0x2,%eax
c0106842:	8d 90 e8 b0 10 c0    	lea    -0x3fef4f18(%eax),%edx
c0106848:	8b 45 14             	mov    0x14(%ebp),%eax
c010684b:	89 02                	mov    %eax,(%edx)
    for (size_t i = start_ppn; i < start_ppn + page_count && i < max_pg; i++)
c010684d:	83 45 fc 01          	addl   $0x1,-0x4(%ebp)
c0106851:	8b 55 0c             	mov    0xc(%ebp),%edx
c0106854:	8b 45 10             	mov    0x10(%ebp),%eax
c0106857:	01 d0                	add    %edx,%eax
c0106859:	39 45 fc             	cmp    %eax,-0x4(%ebp)
c010685c:	73 0a                	jae    c0106868 <pmm_mark_chunk_occupied+0x6e>
c010685e:	a1 c4 b0 10 c0       	mov    0xc010b0c4,%eax
c0106863:	39 45 fc             	cmp    %eax,-0x4(%ebp)
c0106866:	72 a0                	jb     c0106808 <pmm_mark_chunk_occupied+0xe>
            .owner = owner,
            .ref_counts = 1,
            .attr = attr
        };
    }
}
c0106868:	90                   	nop
c0106869:	c9                   	leave  
c010686a:	c3                   	ret    

c010686b <pmm_alloc_page>:

void* pmm_alloc_page(pid_t owner, pp_attr_t attr)
{
c010686b:	55                   	push   %ebp
c010686c:	89 e5                	mov    %esp,%ebp
c010686e:	83 ec 20             	sub    $0x20,%esp
        // Next fit approach. Maximize the throughput!
    uintptr_t good_page_found = NULL;
c0106871:	c7 45 fc 00 00 00 00 	movl   $0x0,-0x4(%ebp)
    size_t old_pg_ptr = pg_lookup_ptr;
c0106878:	a1 c0 b0 10 c0       	mov    0xc010b0c0,%eax
c010687d:	89 45 f8             	mov    %eax,-0x8(%ebp)
    size_t upper_lim = max_pg;
c0106880:	a1 c4 b0 10 c0       	mov    0xc010b0c4,%eax
c0106885:	89 45 f4             	mov    %eax,-0xc(%ebp)
    struct pp_struct* pm;
    while (!good_page_found && pg_lookup_ptr < upper_lim) {
c0106888:	eb 7d                	jmp    c0106907 <pmm_alloc_page+0x9c>
        pm = &pm_table[pg_lookup_ptr];
c010688a:	8b 15 c0 b0 10 c0    	mov    0xc010b0c0,%edx
c0106890:	89 d0                	mov    %edx,%eax
c0106892:	01 c0                	add    %eax,%eax
c0106894:	01 d0                	add    %edx,%eax
c0106896:	c1 e0 02             	shl    $0x2,%eax
c0106899:	05 e0 b0 10 c0       	add    $0xc010b0e0,%eax
c010689e:	89 45 f0             	mov    %eax,-0x10(%ebp)

        // skip the fully occupied chunk, reduce # of iterations
        if (!pm->ref_counts) {
c01068a1:	8b 45 f0             	mov    -0x10(%ebp),%eax
c01068a4:	8b 40 04             	mov    0x4(%eax),%eax
c01068a7:	85 c0                	test   %eax,%eax
c01068a9:	75 28                	jne    c01068d3 <pmm_alloc_page+0x68>
                *pm = (struct pp_struct) {
c01068ab:	8b 45 f0             	mov    -0x10(%ebp),%eax
c01068ae:	8b 55 08             	mov    0x8(%ebp),%edx
c01068b1:	89 10                	mov    %edx,(%eax)
c01068b3:	8b 45 f0             	mov    -0x10(%ebp),%eax
c01068b6:	c7 40 04 01 00 00 00 	movl   $0x1,0x4(%eax)
c01068bd:	8b 45 f0             	mov    -0x10(%ebp),%eax
c01068c0:	8b 55 0c             	mov    0xc(%ebp),%edx
c01068c3:	89 50 08             	mov    %edx,0x8(%eax)
                .attr = attr,
                .owner = owner,
                .ref_counts = 1
            };
            good_page_found = pg_lookup_ptr << 12;
c01068c6:	a1 c0 b0 10 c0       	mov    0xc010b0c0,%eax
c01068cb:	c1 e0 0c             	shl    $0xc,%eax
c01068ce:	89 45 fc             	mov    %eax,-0x4(%ebp)
c01068d1:	eb 34                	jmp    c0106907 <pmm_alloc_page+0x9c>
        } else {
            pg_lookup_ptr ++;
c01068d3:	a1 c0 b0 10 c0       	mov    0xc010b0c0,%eax
c01068d8:	83 c0 01             	add    $0x1,%eax
c01068db:	a3 c0 b0 10 c0       	mov    %eax,0xc010b0c0

            // We've searched the interval [old_pg_ptr, max_pg) but failed
            //   may be chances in [1, old_pg_ptr) ?
            // Let's find out!
            if (pg_lookup_ptr >= upper_lim && old_pg_ptr != LOOKUP_START) {
c01068e0:	a1 c0 b0 10 c0       	mov    0xc010b0c0,%eax
c01068e5:	39 45 f4             	cmp    %eax,-0xc(%ebp)
c01068e8:	77 1d                	ja     c0106907 <pmm_alloc_page+0x9c>
c01068ea:	83 7d f8 01          	cmpl   $0x1,-0x8(%ebp)
c01068ee:	74 17                	je     c0106907 <pmm_alloc_page+0x9c>
                upper_lim = old_pg_ptr;
c01068f0:	8b 45 f8             	mov    -0x8(%ebp),%eax
c01068f3:	89 45 f4             	mov    %eax,-0xc(%ebp)
                pg_lookup_ptr = LOOKUP_START;
c01068f6:	c7 05 c0 b0 10 c0 01 	movl   $0x1,0xc010b0c0
c01068fd:	00 00 00 
                old_pg_ptr = LOOKUP_START;
c0106900:	c7 45 f8 01 00 00 00 	movl   $0x1,-0x8(%ebp)
    while (!good_page_found && pg_lookup_ptr < upper_lim) {
c0106907:	83 7d fc 00          	cmpl   $0x0,-0x4(%ebp)
c010690b:	75 0e                	jne    c010691b <pmm_alloc_page+0xb0>
c010690d:	a1 c0 b0 10 c0       	mov    0xc010b0c0,%eax
c0106912:	39 45 f4             	cmp    %eax,-0xc(%ebp)
c0106915:	0f 87 6f ff ff ff    	ja     c010688a <pmm_alloc_page+0x1f>
            }
        }
    }
    if (!good_page_found) {
c010691b:	83 7d fc 00          	cmpl   $0x0,-0x4(%ebp)
c010691f:	75 0c                	jne    c010692d <pmm_alloc_page+0xc2>
        __current->k_status = MXOUTOFMEM;
c0106921:	a1 80 c1 d0 c0       	mov    0xc0d0c180,%eax
c0106926:	c7 40 68 fd ff ff ff 	movl   $0xfffffffd,0x68(%eax)
    }
    return (void*)good_page_found;
c010692d:	8b 45 fc             	mov    -0x4(%ebp),%eax
}
c0106930:	c9                   	leave  
c0106931:	c3                   	ret    

c0106932 <pmm_alloc_cpage>:

void* pmm_alloc_cpage(pid_t owner, size_t num_pages, pp_attr_t attr) {
c0106932:	55                   	push   %ebp
c0106933:	89 e5                	mov    %esp,%ebp
c0106935:	83 ec 10             	sub    $0x10,%esp
    size_t p1 = 0;
c0106938:	c7 45 fc 00 00 00 00 	movl   $0x0,-0x4(%ebp)
    size_t p2 = 0;
c010693f:	c7 45 f8 00 00 00 00 	movl   $0x0,-0x8(%ebp)

    while (p2 < max_pg && p2 - p1 < num_pages)
c0106946:	eb 28                	jmp    c0106970 <pmm_alloc_cpage+0x3e>
    {
        (!(&pm_table[p2])->ref_counts) ? (p2++) : (p1 = p2);
c0106948:	8b 55 f8             	mov    -0x8(%ebp),%edx
c010694b:	89 d0                	mov    %edx,%eax
c010694d:	01 c0                	add    %eax,%eax
c010694f:	01 d0                	add    %edx,%eax
c0106951:	c1 e0 02             	shl    $0x2,%eax
c0106954:	05 e4 b0 10 c0       	add    $0xc010b0e4,%eax
c0106959:	8b 00                	mov    (%eax),%eax
c010695b:	85 c0                	test   %eax,%eax
c010695d:	75 0b                	jne    c010696a <pmm_alloc_cpage+0x38>
c010695f:	8b 45 f8             	mov    -0x8(%ebp),%eax
c0106962:	83 c0 01             	add    $0x1,%eax
c0106965:	89 45 f8             	mov    %eax,-0x8(%ebp)
c0106968:	eb 06                	jmp    c0106970 <pmm_alloc_cpage+0x3e>
c010696a:	8b 45 f8             	mov    -0x8(%ebp),%eax
c010696d:	89 45 fc             	mov    %eax,-0x4(%ebp)
    while (p2 < max_pg && p2 - p1 < num_pages)
c0106970:	a1 c4 b0 10 c0       	mov    0xc010b0c4,%eax
c0106975:	39 45 f8             	cmp    %eax,-0x8(%ebp)
c0106978:	73 0b                	jae    c0106985 <pmm_alloc_cpage+0x53>
c010697a:	8b 45 f8             	mov    -0x8(%ebp),%eax
c010697d:	2b 45 fc             	sub    -0x4(%ebp),%eax
c0106980:	39 45 0c             	cmp    %eax,0xc(%ebp)
c0106983:	77 c3                	ja     c0106948 <pmm_alloc_cpage+0x16>
    }

    if (p2 < max_pg) {
c0106985:	a1 c4 b0 10 c0       	mov    0xc010b0c4,%eax
c010698a:	39 45 f8             	cmp    %eax,-0x8(%ebp)
c010698d:	73 07                	jae    c0106996 <pmm_alloc_cpage+0x64>
        return NULL;
c010698f:	b8 00 00 00 00       	mov    $0x0,%eax
c0106994:	eb 1a                	jmp    c01069b0 <pmm_alloc_cpage+0x7e>
    }

    pmm_mark_chunk_occupied(owner, p1, num_pages, attr);
c0106996:	ff 75 10             	push   0x10(%ebp)
c0106999:	ff 75 0c             	push   0xc(%ebp)
c010699c:	ff 75 fc             	push   -0x4(%ebp)
c010699f:	ff 75 08             	push   0x8(%ebp)
c01069a2:	e8 53 fe ff ff       	call   c01067fa <pmm_mark_chunk_occupied>
c01069a7:	83 c4 10             	add    $0x10,%esp

    return p1 << 12;
c01069aa:	8b 45 fc             	mov    -0x4(%ebp),%eax
c01069ad:	c1 e0 0c             	shl    $0xc,%eax
}
c01069b0:	c9                   	leave  
c01069b1:	c3                   	ret    

c01069b2 <pmm_free_page>:

int pmm_free_page(pid_t owner, void* page)
{
c01069b2:	55                   	push   %ebp
c01069b3:	89 e5                	mov    %esp,%ebp
c01069b5:	83 ec 10             	sub    $0x10,%esp
    struct pp_struct* pm = &pm_table[(intptr_t)page >> 12];
c01069b8:	8b 45 0c             	mov    0xc(%ebp),%eax
c01069bb:	c1 f8 0c             	sar    $0xc,%eax
c01069be:	89 c2                	mov    %eax,%edx
c01069c0:	89 d0                	mov    %edx,%eax
c01069c2:	01 c0                	add    %eax,%eax
c01069c4:	01 d0                	add    %edx,%eax
c01069c6:	c1 e0 02             	shl    $0x2,%eax
c01069c9:	05 e0 b0 10 c0       	add    $0xc010b0e0,%eax
c01069ce:	89 45 fc             	mov    %eax,-0x4(%ebp)
    //     pm->ref_counts--;
    //     return 1;
    // }

        // Is this a MMIO mapping or double free?
    if (((intptr_t)page >> 12) >= max_pg || !(pm->ref_counts)) {
c01069d1:	8b 45 0c             	mov    0xc(%ebp),%eax
c01069d4:	c1 f8 0c             	sar    $0xc,%eax
c01069d7:	89 c2                	mov    %eax,%edx
c01069d9:	a1 c4 b0 10 c0       	mov    0xc010b0c4,%eax
c01069de:	39 c2                	cmp    %eax,%edx
c01069e0:	73 0a                	jae    c01069ec <pmm_free_page+0x3a>
c01069e2:	8b 45 fc             	mov    -0x4(%ebp),%eax
c01069e5:	8b 40 04             	mov    0x4(%eax),%eax
c01069e8:	85 c0                	test   %eax,%eax
c01069ea:	75 07                	jne    c01069f3 <pmm_free_page+0x41>
        return 0;
c01069ec:	b8 00 00 00 00       	mov    $0x0,%eax
c01069f1:	eb 14                	jmp    c0106a07 <pmm_free_page+0x55>
    }

    // TODO: 检查权限，保证：1) 只有正在使用该页（包括被分享者）的进程可以释放； 2) 内核可释放所有页。
    pm->ref_counts--;
c01069f3:	8b 45 fc             	mov    -0x4(%ebp),%eax
c01069f6:	8b 40 04             	mov    0x4(%eax),%eax
c01069f9:	8d 50 ff             	lea    -0x1(%eax),%edx
c01069fc:	8b 45 fc             	mov    -0x4(%ebp),%eax
c01069ff:	89 50 04             	mov    %edx,0x4(%eax)
    return 1;
c0106a02:	b8 01 00 00 00       	mov    $0x1,%eax
    //return 0;
    
}
c0106a07:	c9                   	leave  
c0106a08:	c3                   	ret    

c0106a09 <pmm_query>:

struct pp_struct* pmm_query(void* pa) {
c0106a09:	55                   	push   %ebp
c0106a0a:	89 e5                	mov    %esp,%ebp
c0106a0c:	83 ec 10             	sub    $0x10,%esp
    uint32_t ppn = (uintptr_t)pa >> 12;
c0106a0f:	8b 45 08             	mov    0x8(%ebp),%eax
c0106a12:	c1 e8 0c             	shr    $0xc,%eax
c0106a15:	89 45 fc             	mov    %eax,-0x4(%ebp)
    
    if (ppn >= PM_STRUCT_MAX_SIZE) {
c0106a18:	81 7d fc ff ff 0f 00 	cmpl   $0xfffff,-0x4(%ebp)
c0106a1f:	76 07                	jbe    c0106a28 <pmm_query+0x1f>
        return NULL;
c0106a21:	b8 00 00 00 00       	mov    $0x0,%eax
c0106a26:	eb 11                	jmp    c0106a39 <pmm_query+0x30>
    }

    return &pm_table[ppn];
c0106a28:	8b 55 fc             	mov    -0x4(%ebp),%edx
c0106a2b:	89 d0                	mov    %edx,%eax
c0106a2d:	01 c0                	add    %eax,%eax
c0106a2f:	01 d0                	add    %edx,%eax
c0106a31:	c1 e0 02             	shl    $0x2,%eax
c0106a34:	05 e0 b0 10 c0       	add    $0xc010b0e0,%eax
}
c0106a39:	c9                   	leave  
c0106a3a:	c3                   	ret    

c0106a3b <pmm_ref_page>:

int pmm_ref_page(pid_t owner, void* page) {
c0106a3b:	55                   	push   %ebp
c0106a3c:	89 e5                	mov    %esp,%ebp
c0106a3e:	83 ec 10             	sub    $0x10,%esp
    //(void*) owner;      // TODO: do smth with owner
    
    uint32_t ppn = (uintptr_t)page >> 12;
c0106a41:	8b 45 0c             	mov    0xc(%ebp),%eax
c0106a44:	c1 e8 0c             	shr    $0xc,%eax
c0106a47:	89 45 fc             	mov    %eax,-0x4(%ebp)
    
    if (ppn >= PM_STRUCT_MAX_SIZE) {
c0106a4a:	81 7d fc ff ff 0f 00 	cmpl   $0xfffff,-0x4(%ebp)
c0106a51:	76 07                	jbe    c0106a5a <pmm_ref_page+0x1f>
        return 0;
c0106a53:	b8 00 00 00 00       	mov    $0x0,%eax
c0106a58:	eb 43                	jmp    c0106a9d <pmm_ref_page+0x62>
    }

    struct pp_struct* pm = &pm_table[ppn];
c0106a5a:	8b 55 fc             	mov    -0x4(%ebp),%edx
c0106a5d:	89 d0                	mov    %edx,%eax
c0106a5f:	01 c0                	add    %eax,%eax
c0106a61:	01 d0                	add    %edx,%eax
c0106a63:	c1 e0 02             	shl    $0x2,%eax
c0106a66:	05 e0 b0 10 c0       	add    $0xc010b0e0,%eax
c0106a6b:	89 45 f8             	mov    %eax,-0x8(%ebp)
    if (ppn >= max_pg || !pm->ref_counts) {
c0106a6e:	a1 c4 b0 10 c0       	mov    0xc010b0c4,%eax
c0106a73:	39 45 fc             	cmp    %eax,-0x4(%ebp)
c0106a76:	73 0a                	jae    c0106a82 <pmm_ref_page+0x47>
c0106a78:	8b 45 f8             	mov    -0x8(%ebp),%eax
c0106a7b:	8b 40 04             	mov    0x4(%eax),%eax
c0106a7e:	85 c0                	test   %eax,%eax
c0106a80:	75 07                	jne    c0106a89 <pmm_ref_page+0x4e>
        return 0;
c0106a82:	b8 00 00 00 00       	mov    $0x0,%eax
c0106a87:	eb 14                	jmp    c0106a9d <pmm_ref_page+0x62>
    }

    pm->ref_counts++;
c0106a89:	8b 45 f8             	mov    -0x8(%ebp),%eax
c0106a8c:	8b 40 04             	mov    0x4(%eax),%eax
c0106a8f:	8d 50 01             	lea    0x1(%eax),%edx
c0106a92:	8b 45 f8             	mov    -0x8(%ebp),%eax
c0106a95:	89 50 04             	mov    %edx,0x4(%eax)
    return 1;
c0106a98:	b8 01 00 00 00       	mov    $0x1,%eax
}
c0106a9d:	c9                   	leave  
c0106a9e:	c3                   	ret    

c0106a9f <extend_heap>:
 * @brief extend heap
 * 
 * @param extend size
 */
static void* extend_heap(size_t words)
{
c0106a9f:	55                   	push   %ebp
c0106aa0:	89 e5                	mov    %esp,%ebp
c0106aa2:	83 ec 18             	sub    $0x18,%esp
    char* bp = mem_brk;
c0106aa5:	a1 e8 b0 d0 c0       	mov    0xc0d0b0e8,%eax
c0106aaa:	89 45 f4             	mov    %eax,-0xc(%ebp)
    size_t size;
    //align
    size = (words % 2) ? words * WSIZE : (words + 1) * WSIZE;
c0106aad:	8b 45 08             	mov    0x8(%ebp),%eax
c0106ab0:	83 e0 01             	and    $0x1,%eax
c0106ab3:	85 c0                	test   %eax,%eax
c0106ab5:	74 08                	je     c0106abf <extend_heap+0x20>
c0106ab7:	8b 45 08             	mov    0x8(%ebp),%eax
c0106aba:	c1 e0 02             	shl    $0x2,%eax
c0106abd:	eb 09                	jmp    c0106ac8 <extend_heap+0x29>
c0106abf:	8b 45 08             	mov    0x8(%ebp),%eax
c0106ac2:	83 c0 01             	add    $0x1,%eax
c0106ac5:	c1 e0 02             	shl    $0x2,%eax
c0106ac8:	89 45 f0             	mov    %eax,-0x10(%ebp)
    mem_sbrk(size + WSIZE);
c0106acb:	8b 45 f0             	mov    -0x10(%ebp),%eax
c0106ace:	83 c0 04             	add    $0x4,%eax
c0106ad1:	83 ec 0c             	sub    $0xc,%esp
c0106ad4:	50                   	push   %eax
c0106ad5:	e8 64 03 00 00       	call   c0106e3e <mem_sbrk>
c0106ada:	83 c4 10             	add    $0x10,%esp

    //initialize free block header/footer and the epilogue header
    PUT(HDRP(bp), PACK(size, 0)); // free block header
c0106add:	8b 45 f4             	mov    -0xc(%ebp),%eax
c0106ae0:	8d 50 fc             	lea    -0x4(%eax),%edx
c0106ae3:	8b 45 f0             	mov    -0x10(%ebp),%eax
c0106ae6:	89 02                	mov    %eax,(%edx)
    PUT(FTRP(bp), PACK(size, 0)); // free block foot //TODO CRUSH HERE, ADD ONE PAGE OUT OF RANGE, WE ONLY GIVE ONE PAGE, MEYBE PAGE FAULT
c0106ae8:	8b 45 f4             	mov    -0xc(%ebp),%eax
c0106aeb:	83 e8 04             	sub    $0x4,%eax
c0106aee:	8b 00                	mov    (%eax),%eax
c0106af0:	83 e0 f8             	and    $0xfffffff8,%eax
c0106af3:	8d 50 f8             	lea    -0x8(%eax),%edx
c0106af6:	8b 45 f4             	mov    -0xc(%ebp),%eax
c0106af9:	01 c2                	add    %eax,%edx
c0106afb:	8b 45 f0             	mov    -0x10(%ebp),%eax
c0106afe:	89 02                	mov    %eax,(%edx)
    PUT(HDRP(NEXT_BLKP(bp)), PACK(0, 1)); //NEW Epilogue header
c0106b00:	8b 45 f4             	mov    -0xc(%ebp),%eax
c0106b03:	83 e8 04             	sub    $0x4,%eax
c0106b06:	8b 00                	mov    (%eax),%eax
c0106b08:	83 e0 f8             	and    $0xfffffff8,%eax
c0106b0b:	8d 50 fc             	lea    -0x4(%eax),%edx
c0106b0e:	8b 45 f4             	mov    -0xc(%ebp),%eax
c0106b11:	01 d0                	add    %edx,%eax
c0106b13:	c7 00 01 00 00 00    	movl   $0x1,(%eax)

    //Coalesce if previous block is free
    return coalesce(bp);
c0106b19:	83 ec 0c             	sub    $0xc,%esp
c0106b1c:	ff 75 f4             	push   -0xc(%ebp)
c0106b1f:	e8 05 00 00 00       	call   c0106b29 <coalesce>
c0106b24:	83 c4 10             	add    $0x10,%esp
}
c0106b27:	c9                   	leave  
c0106b28:	c3                   	ret    

c0106b29 <coalesce>:
 * @brief Coalesce free blk
 * 
 * @param Coalesce bp pointer
 */
static void* coalesce(void* bp)
{
c0106b29:	55                   	push   %ebp
c0106b2a:	89 e5                	mov    %esp,%ebp
c0106b2c:	83 ec 10             	sub    $0x10,%esp
    size_t prev_alloc = GET_ALLOC(FTRP(PREV_BLKP(bp)));
c0106b2f:	8b 45 08             	mov    0x8(%ebp),%eax
c0106b32:	83 e8 04             	sub    $0x4,%eax
c0106b35:	8b 00                	mov    (%eax),%eax
c0106b37:	83 e0 f8             	and    $0xfffffff8,%eax
c0106b3a:	8d 50 f8             	lea    -0x8(%eax),%edx
c0106b3d:	8b 45 08             	mov    0x8(%ebp),%eax
c0106b40:	01 d0                	add    %edx,%eax
c0106b42:	8b 00                	mov    (%eax),%eax
c0106b44:	83 e0 01             	and    $0x1,%eax
c0106b47:	89 45 fc             	mov    %eax,-0x4(%ebp)
    size_t next_alloc = GET_ALLOC(HDRP(NEXT_BLKP(bp)));
c0106b4a:	8b 45 08             	mov    0x8(%ebp),%eax
c0106b4d:	83 e8 04             	sub    $0x4,%eax
c0106b50:	8b 00                	mov    (%eax),%eax
c0106b52:	83 e0 f8             	and    $0xfffffff8,%eax
c0106b55:	8d 50 fc             	lea    -0x4(%eax),%edx
c0106b58:	8b 45 08             	mov    0x8(%ebp),%eax
c0106b5b:	01 d0                	add    %edx,%eax
c0106b5d:	8b 00                	mov    (%eax),%eax
c0106b5f:	83 e0 01             	and    $0x1,%eax
c0106b62:	89 45 f8             	mov    %eax,-0x8(%ebp)
    size_t size = GET_SIZE(HDRP(bp));
c0106b65:	8b 45 08             	mov    0x8(%ebp),%eax
c0106b68:	83 e8 04             	sub    $0x4,%eax
c0106b6b:	8b 00                	mov    (%eax),%eax
c0106b6d:	83 e0 f8             	and    $0xfffffff8,%eax
c0106b70:	89 45 f4             	mov    %eax,-0xc(%ebp)

    if(prev_alloc && next_alloc)
c0106b73:	83 7d fc 00          	cmpl   $0x0,-0x4(%ebp)
c0106b77:	74 0e                	je     c0106b87 <coalesce+0x5e>
c0106b79:	83 7d f8 00          	cmpl   $0x0,-0x8(%ebp)
c0106b7d:	74 08                	je     c0106b87 <coalesce+0x5e>
        return bp;
c0106b7f:	8b 45 08             	mov    0x8(%ebp),%eax
c0106b82:	e9 3e 01 00 00       	jmp    c0106cc5 <coalesce+0x19c>

    else if(prev_alloc && !next_alloc)
c0106b87:	83 7d fc 00          	cmpl   $0x0,-0x4(%ebp)
c0106b8b:	74 49                	je     c0106bd6 <coalesce+0xad>
c0106b8d:	83 7d f8 00          	cmpl   $0x0,-0x8(%ebp)
c0106b91:	75 43                	jne    c0106bd6 <coalesce+0xad>
    {
        size += GET_SIZE(HDRP(NEXT_BLKP(bp)));
c0106b93:	8b 45 08             	mov    0x8(%ebp),%eax
c0106b96:	83 e8 04             	sub    $0x4,%eax
c0106b99:	8b 00                	mov    (%eax),%eax
c0106b9b:	83 e0 f8             	and    $0xfffffff8,%eax
c0106b9e:	8d 50 fc             	lea    -0x4(%eax),%edx
c0106ba1:	8b 45 08             	mov    0x8(%ebp),%eax
c0106ba4:	01 d0                	add    %edx,%eax
c0106ba6:	8b 00                	mov    (%eax),%eax
c0106ba8:	83 e0 f8             	and    $0xfffffff8,%eax
c0106bab:	01 45 f4             	add    %eax,-0xc(%ebp)
        PUT(HDRP(bp), PACK(size, 0));
c0106bae:	8b 45 08             	mov    0x8(%ebp),%eax
c0106bb1:	8d 50 fc             	lea    -0x4(%eax),%edx
c0106bb4:	8b 45 f4             	mov    -0xc(%ebp),%eax
c0106bb7:	89 02                	mov    %eax,(%edx)
        PUT(FTRP(bp), PACK(size, 0));
c0106bb9:	8b 45 08             	mov    0x8(%ebp),%eax
c0106bbc:	83 e8 04             	sub    $0x4,%eax
c0106bbf:	8b 00                	mov    (%eax),%eax
c0106bc1:	83 e0 f8             	and    $0xfffffff8,%eax
c0106bc4:	8d 50 f8             	lea    -0x8(%eax),%edx
c0106bc7:	8b 45 08             	mov    0x8(%ebp),%eax
c0106bca:	01 c2                	add    %eax,%edx
c0106bcc:	8b 45 f4             	mov    -0xc(%ebp),%eax
c0106bcf:	89 02                	mov    %eax,(%edx)
c0106bd1:	e9 ec 00 00 00       	jmp    c0106cc2 <coalesce+0x199>
    }

    else if(!prev_alloc && next_alloc)
c0106bd6:	83 7d fc 00          	cmpl   $0x0,-0x4(%ebp)
c0106bda:	75 6b                	jne    c0106c47 <coalesce+0x11e>
c0106bdc:	83 7d f8 00          	cmpl   $0x0,-0x8(%ebp)
c0106be0:	74 65                	je     c0106c47 <coalesce+0x11e>
    {
        size += GET_SIZE(HDRP(PREV_BLKP(bp)));//TO DO ,THERE IS PEOBLEM, CRUSH HERE
c0106be2:	8b 45 08             	mov    0x8(%ebp),%eax
c0106be5:	83 e8 08             	sub    $0x8,%eax
c0106be8:	8b 00                	mov    (%eax),%eax
c0106bea:	83 e0 f8             	and    $0xfffffff8,%eax
c0106bed:	ba fc ff ff ff       	mov    $0xfffffffc,%edx
c0106bf2:	29 c2                	sub    %eax,%edx
c0106bf4:	8b 45 08             	mov    0x8(%ebp),%eax
c0106bf7:	01 d0                	add    %edx,%eax
c0106bf9:	8b 00                	mov    (%eax),%eax
c0106bfb:	83 e0 f8             	and    $0xfffffff8,%eax
c0106bfe:	01 45 f4             	add    %eax,-0xc(%ebp)
        PUT(FTRP(bp), PACK(size, 0));
c0106c01:	8b 45 08             	mov    0x8(%ebp),%eax
c0106c04:	83 e8 04             	sub    $0x4,%eax
c0106c07:	8b 00                	mov    (%eax),%eax
c0106c09:	83 e0 f8             	and    $0xfffffff8,%eax
c0106c0c:	8d 50 f8             	lea    -0x8(%eax),%edx
c0106c0f:	8b 45 08             	mov    0x8(%ebp),%eax
c0106c12:	01 c2                	add    %eax,%edx
c0106c14:	8b 45 f4             	mov    -0xc(%ebp),%eax
c0106c17:	89 02                	mov    %eax,(%edx)
        PUT(HDRP(PREV_BLKP(bp)), PACK(size, 0));
c0106c19:	8b 45 08             	mov    0x8(%ebp),%eax
c0106c1c:	83 e8 08             	sub    $0x8,%eax
c0106c1f:	8b 00                	mov    (%eax),%eax
c0106c21:	83 e0 f8             	and    $0xfffffff8,%eax
c0106c24:	ba fc ff ff ff       	mov    $0xfffffffc,%edx
c0106c29:	29 c2                	sub    %eax,%edx
c0106c2b:	8b 45 08             	mov    0x8(%ebp),%eax
c0106c2e:	01 c2                	add    %eax,%edx
c0106c30:	8b 45 f4             	mov    -0xc(%ebp),%eax
c0106c33:	89 02                	mov    %eax,(%edx)
        bp = PREV_BLKP(bp);
c0106c35:	8b 45 08             	mov    0x8(%ebp),%eax
c0106c38:	83 e8 08             	sub    $0x8,%eax
c0106c3b:	8b 00                	mov    (%eax),%eax
c0106c3d:	83 e0 f8             	and    $0xfffffff8,%eax
c0106c40:	f7 d8                	neg    %eax
c0106c42:	01 45 08             	add    %eax,0x8(%ebp)
c0106c45:	eb 7b                	jmp    c0106cc2 <coalesce+0x199>
    }

    else{
        size += GET_SIZE(HDRP(PREV_BLKP(bp))) + GET_SIZE(FTRP(NEXT_BLKP(bp)));
c0106c47:	8b 45 08             	mov    0x8(%ebp),%eax
c0106c4a:	83 e8 08             	sub    $0x8,%eax
c0106c4d:	8b 00                	mov    (%eax),%eax
c0106c4f:	83 e0 f8             	and    $0xfffffff8,%eax
c0106c52:	ba fc ff ff ff       	mov    $0xfffffffc,%edx
c0106c57:	29 c2                	sub    %eax,%edx
c0106c59:	8b 45 08             	mov    0x8(%ebp),%eax
c0106c5c:	01 d0                	add    %edx,%eax
c0106c5e:	8b 00                	mov    (%eax),%eax
c0106c60:	83 e0 f8             	and    $0xfffffff8,%eax
c0106c63:	89 c2                	mov    %eax,%edx
c0106c65:	8b 45 08             	mov    0x8(%ebp),%eax
c0106c68:	83 e8 04             	sub    $0x4,%eax
c0106c6b:	8b 00                	mov    (%eax),%eax
c0106c6d:	83 e0 f8             	and    $0xfffffff8,%eax
c0106c70:	8d 48 f8             	lea    -0x8(%eax),%ecx
c0106c73:	8b 45 08             	mov    0x8(%ebp),%eax
c0106c76:	01 c8                	add    %ecx,%eax
c0106c78:	8b 00                	mov    (%eax),%eax
c0106c7a:	83 e0 f8             	and    $0xfffffff8,%eax
c0106c7d:	01 d0                	add    %edx,%eax
c0106c7f:	01 45 f4             	add    %eax,-0xc(%ebp)
        PUT(FTRP(PREV_BLKP(bp)), PACK(size, 0));
c0106c82:	8b 45 08             	mov    0x8(%ebp),%eax
c0106c85:	83 e8 04             	sub    $0x4,%eax
c0106c88:	8b 00                	mov    (%eax),%eax
c0106c8a:	83 e0 f8             	and    $0xfffffff8,%eax
c0106c8d:	8d 50 f8             	lea    -0x8(%eax),%edx
c0106c90:	8b 45 08             	mov    0x8(%ebp),%eax
c0106c93:	01 c2                	add    %eax,%edx
c0106c95:	8b 45 f4             	mov    -0xc(%ebp),%eax
c0106c98:	89 02                	mov    %eax,(%edx)
        PUT(HDRP(NEXT_BLKP(bp)), PACK(size, 0));
c0106c9a:	8b 45 08             	mov    0x8(%ebp),%eax
c0106c9d:	83 e8 04             	sub    $0x4,%eax
c0106ca0:	8b 00                	mov    (%eax),%eax
c0106ca2:	83 e0 f8             	and    $0xfffffff8,%eax
c0106ca5:	8d 50 fc             	lea    -0x4(%eax),%edx
c0106ca8:	8b 45 08             	mov    0x8(%ebp),%eax
c0106cab:	01 c2                	add    %eax,%edx
c0106cad:	8b 45 f4             	mov    -0xc(%ebp),%eax
c0106cb0:	89 02                	mov    %eax,(%edx)
        bp = PREV_BLKP(bp);
c0106cb2:	8b 45 08             	mov    0x8(%ebp),%eax
c0106cb5:	83 e8 08             	sub    $0x8,%eax
c0106cb8:	8b 00                	mov    (%eax),%eax
c0106cba:	83 e0 f8             	and    $0xfffffff8,%eax
c0106cbd:	f7 d8                	neg    %eax
c0106cbf:	01 45 08             	add    %eax,0x8(%ebp)
    }
    return bp;
c0106cc2:	8b 45 08             	mov    0x8(%ebp),%eax
}
c0106cc5:	c9                   	leave  
c0106cc6:	c3                   	ret    

c0106cc7 <find_fit>:
 * @brief find free blk
 * 
 * @param find size
 */
static void* find_fit(size_t asize)// we just traverse heap
{
c0106cc7:	55                   	push   %ebp
c0106cc8:	89 e5                	mov    %esp,%ebp
c0106cca:	83 ec 10             	sub    $0x10,%esp
    void* bp = heap_listp;
c0106ccd:	a1 e0 b0 d0 c0       	mov    0xc0d0b0e0,%eax
c0106cd2:	89 45 fc             	mov    %eax,-0x4(%ebp)
    while(GET_ALLOC(HDRP(bp)) || (GET_SIZE(HDRP(bp)) < asize))
c0106cd5:	eb 2f                	jmp    c0106d06 <find_fit+0x3f>
    {
        if(GET_SIZE(bp) != 0 && GET_ALLOC(bp) != 1)
c0106cd7:	8b 45 fc             	mov    -0x4(%ebp),%eax
c0106cda:	8b 00                	mov    (%eax),%eax
c0106cdc:	83 e0 f8             	and    $0xfffffff8,%eax
c0106cdf:	85 c0                	test   %eax,%eax
c0106ce1:	74 1c                	je     c0106cff <find_fit+0x38>
c0106ce3:	8b 45 fc             	mov    -0x4(%ebp),%eax
c0106ce6:	8b 00                	mov    (%eax),%eax
c0106ce8:	83 e0 01             	and    $0x1,%eax
c0106ceb:	85 c0                	test   %eax,%eax
c0106ced:	75 10                	jne    c0106cff <find_fit+0x38>
            bp = NEXT_BLKP(bp);
c0106cef:	8b 45 fc             	mov    -0x4(%ebp),%eax
c0106cf2:	83 e8 04             	sub    $0x4,%eax
c0106cf5:	8b 00                	mov    (%eax),%eax
c0106cf7:	83 e0 f8             	and    $0xfffffff8,%eax
c0106cfa:	01 45 fc             	add    %eax,-0x4(%ebp)
c0106cfd:	eb 07                	jmp    c0106d06 <find_fit+0x3f>
        else
            return NULL;
c0106cff:	b8 00 00 00 00       	mov    $0x0,%eax
c0106d04:	eb 22                	jmp    c0106d28 <find_fit+0x61>
    while(GET_ALLOC(HDRP(bp)) || (GET_SIZE(HDRP(bp)) < asize))
c0106d06:	8b 45 fc             	mov    -0x4(%ebp),%eax
c0106d09:	83 e8 04             	sub    $0x4,%eax
c0106d0c:	8b 00                	mov    (%eax),%eax
c0106d0e:	83 e0 01             	and    $0x1,%eax
c0106d11:	85 c0                	test   %eax,%eax
c0106d13:	75 c2                	jne    c0106cd7 <find_fit+0x10>
c0106d15:	8b 45 fc             	mov    -0x4(%ebp),%eax
c0106d18:	83 e8 04             	sub    $0x4,%eax
c0106d1b:	8b 00                	mov    (%eax),%eax
c0106d1d:	83 e0 f8             	and    $0xfffffff8,%eax
c0106d20:	39 45 08             	cmp    %eax,0x8(%ebp)
c0106d23:	77 b2                	ja     c0106cd7 <find_fit+0x10>
    }
    return bp;
c0106d25:	8b 45 fc             	mov    -0x4(%ebp),%eax
}
c0106d28:	c9                   	leave  
c0106d29:	c3                   	ret    

c0106d2a <place>:
 * @brief place the blk
 * 
 * @param blk,size
 */
static void place(void* bp, size_t asize)
{
c0106d2a:	55                   	push   %ebp
c0106d2b:	89 e5                	mov    %esp,%ebp
c0106d2d:	83 ec 10             	sub    $0x10,%esp
    size_t bp_allsize = GET_SIZE(HDRP(bp));
c0106d30:	8b 45 08             	mov    0x8(%ebp),%eax
c0106d33:	83 e8 04             	sub    $0x4,%eax
c0106d36:	8b 00                	mov    (%eax),%eax
c0106d38:	83 e0 f8             	and    $0xfffffff8,%eax
c0106d3b:	89 45 fc             	mov    %eax,-0x4(%ebp)
    size_t remain_size = bp_allsize - asize;
c0106d3e:	8b 45 fc             	mov    -0x4(%ebp),%eax
c0106d41:	2b 45 0c             	sub    0xc(%ebp),%eax
c0106d44:	89 45 f8             	mov    %eax,-0x8(%ebp)

    if(remain_size >= 2*DSIZE)
c0106d47:	83 7d f8 0f          	cmpl   $0xf,-0x8(%ebp)
c0106d4b:	76 5b                	jbe    c0106da8 <place+0x7e>
    {
        PUT(HDRP(bp), PACK(asize, 1));
c0106d4d:	8b 45 08             	mov    0x8(%ebp),%eax
c0106d50:	83 e8 04             	sub    $0x4,%eax
c0106d53:	8b 55 0c             	mov    0xc(%ebp),%edx
c0106d56:	83 ca 01             	or     $0x1,%edx
c0106d59:	89 10                	mov    %edx,(%eax)
        PUT(FTRP(bp), PACK(asize, 1));
c0106d5b:	8b 45 08             	mov    0x8(%ebp),%eax
c0106d5e:	83 e8 04             	sub    $0x4,%eax
c0106d61:	8b 00                	mov    (%eax),%eax
c0106d63:	83 e0 f8             	and    $0xfffffff8,%eax
c0106d66:	8d 50 f8             	lea    -0x8(%eax),%edx
c0106d69:	8b 45 08             	mov    0x8(%ebp),%eax
c0106d6c:	01 d0                	add    %edx,%eax
c0106d6e:	8b 55 0c             	mov    0xc(%ebp),%edx
c0106d71:	83 ca 01             	or     $0x1,%edx
c0106d74:	89 10                	mov    %edx,(%eax)
        PUT(HDRP(NEXT_BLKP(bp)), PACK(remain_size, 0));
c0106d76:	8b 45 08             	mov    0x8(%ebp),%eax
c0106d79:	83 e8 04             	sub    $0x4,%eax
c0106d7c:	8b 00                	mov    (%eax),%eax
c0106d7e:	83 e0 f8             	and    $0xfffffff8,%eax
c0106d81:	8d 50 fc             	lea    -0x4(%eax),%edx
c0106d84:	8b 45 08             	mov    0x8(%ebp),%eax
c0106d87:	01 c2                	add    %eax,%edx
c0106d89:	8b 45 f8             	mov    -0x8(%ebp),%eax
c0106d8c:	89 02                	mov    %eax,(%edx)
        PUT(FTRP(NEXT_BLKP(bp)), PACK(remain_size, 0));
c0106d8e:	8b 45 08             	mov    0x8(%ebp),%eax
c0106d91:	83 e8 04             	sub    $0x4,%eax
c0106d94:	8b 00                	mov    (%eax),%eax
c0106d96:	83 e0 f8             	and    $0xfffffff8,%eax
c0106d99:	8d 50 f8             	lea    -0x8(%eax),%edx
c0106d9c:	8b 45 08             	mov    0x8(%ebp),%eax
c0106d9f:	01 c2                	add    %eax,%edx
c0106da1:	8b 45 f8             	mov    -0x8(%ebp),%eax
c0106da4:	89 02                	mov    %eax,(%edx)
    }else{
        PUT(HDRP(bp), PACK(bp_allsize, 1));
        PUT(FTRP(bp), PACK(bp_allsize, 1));
    }
}
c0106da6:	eb 29                	jmp    c0106dd1 <place+0xa7>
        PUT(HDRP(bp), PACK(bp_allsize, 1));
c0106da8:	8b 45 08             	mov    0x8(%ebp),%eax
c0106dab:	83 e8 04             	sub    $0x4,%eax
c0106dae:	8b 55 fc             	mov    -0x4(%ebp),%edx
c0106db1:	83 ca 01             	or     $0x1,%edx
c0106db4:	89 10                	mov    %edx,(%eax)
        PUT(FTRP(bp), PACK(bp_allsize, 1));
c0106db6:	8b 45 08             	mov    0x8(%ebp),%eax
c0106db9:	83 e8 04             	sub    $0x4,%eax
c0106dbc:	8b 00                	mov    (%eax),%eax
c0106dbe:	83 e0 f8             	and    $0xfffffff8,%eax
c0106dc1:	8d 50 f8             	lea    -0x8(%eax),%edx
c0106dc4:	8b 45 08             	mov    0x8(%ebp),%eax
c0106dc7:	01 d0                	add    %edx,%eax
c0106dc9:	8b 55 fc             	mov    -0x4(%ebp),%edx
c0106dcc:	83 ca 01             	or     $0x1,%edx
c0106dcf:	89 10                	mov    %edx,(%eax)
}
c0106dd1:	90                   	nop
c0106dd2:	c9                   	leave  
c0106dd3:	c3                   	ret    

c0106dd4 <mem_init>:

//following is head file function

void mem_init()
{
c0106dd4:	55                   	push   %ebp
c0106dd5:	89 e5                	mov    %esp,%ebp
c0106dd7:	83 ec 18             	sub    $0x18,%esp
    mem_heap = &__heap_start;
c0106dda:	c7 05 e4 b0 d0 c0 00 	movl   $0xc1119000,0xc0d0b0e4
c0106de1:	90 11 c1 
    //mem_heap = (char*)Malloc(MAX_HEAP);
    mem_brk = mem_heap;
c0106de4:	a1 e4 b0 d0 c0       	mov    0xc0d0b0e4,%eax
c0106de9:	a3 e8 b0 d0 c0       	mov    %eax,0xc0d0b0e8
    //mem_max_addr = (char*)(mem_heap + MAX_HEAP);
    mem_max_addr = (char*)KSTACK_START;
c0106dee:	c7 05 ec b0 d0 c0 00 	movl   $0xffbf0000,0xc0d0b0ec
c0106df5:	00 bf ff 
    uint8_t* pgaddr = 0;
c0106df8:	c7 45 f4 00 00 00 00 	movl   $0x0,-0xc(%ebp)
    if((pgaddr = vmm_alloc_page(KERNEL_PID, mem_brk, NULL, PG_PREM_RW, PG_PREM_RW)) == NULL)
c0106dff:	a1 e8 b0 d0 c0       	mov    0xc0d0b0e8,%eax
c0106e04:	83 ec 0c             	sub    $0xc,%esp
c0106e07:	6a 03                	push   $0x3
c0106e09:	6a 03                	push   $0x3
c0106e0b:	6a 00                	push   $0x0
c0106e0d:	50                   	push   %eax
c0106e0e:	6a ff                	push   $0xffffffff
c0106e10:	e8 12 09 00 00       	call   c0107727 <vmm_alloc_page>
c0106e15:	83 c4 20             	add    $0x20,%esp
c0106e18:	89 45 f4             	mov    %eax,-0xc(%ebp)
c0106e1b:	83 7d f4 00          	cmpl   $0x0,-0xc(%ebp)
c0106e1f:	74 1a                	je     c0106e3b <mem_init+0x67>
        return;
    kprintf("malloc init phy address is 0x%x\n", pgaddr);
c0106e21:	83 ec 08             	sub    $0x8,%esp
c0106e24:	ff 75 f4             	push   -0xc(%ebp)
c0106e27:	68 a8 e1 d0 c0       	push   $0xc0d0e1a8
c0106e2c:	e8 8f 33 00 00       	call   c010a1c0 <kprintf>
c0106e31:	83 c4 10             	add    $0x10,%esp
    malloc_init();
c0106e34:	e8 bb 00 00 00       	call   c0106ef4 <malloc_init>
c0106e39:	eb 01                	jmp    c0106e3c <mem_init+0x68>
        return;
c0106e3b:	90                   	nop
}
c0106e3c:	c9                   	leave  
c0106e3d:	c3                   	ret    

c0106e3e <mem_sbrk>:

void* mem_sbrk(int incr)
{
c0106e3e:	55                   	push   %ebp
c0106e3f:	89 e5                	mov    %esp,%ebp
c0106e41:	83 ec 18             	sub    $0x18,%esp
    char* old = mem_brk;
c0106e44:	a1 e8 b0 d0 c0       	mov    0xc0d0b0e8,%eax
c0106e49:	89 45 f4             	mov    %eax,-0xc(%ebp)
    if((incr < 0) || ((mem_brk + incr) > mem_max_addr))
c0106e4c:	83 7d 08 00          	cmpl   $0x0,0x8(%ebp)
c0106e50:	78 14                	js     c0106e66 <mem_sbrk+0x28>
c0106e52:	8b 15 e8 b0 d0 c0    	mov    0xc0d0b0e8,%edx
c0106e58:	8b 45 08             	mov    0x8(%ebp),%eax
c0106e5b:	01 c2                	add    %eax,%edx
c0106e5d:	a1 ec b0 d0 c0       	mov    0xc0d0b0ec,%eax
c0106e62:	39 c2                	cmp    %eax,%edx
c0106e64:	76 0a                	jbe    c0106e70 <mem_sbrk+0x32>
    {
        return (void*)-1;
c0106e66:	b8 ff ff ff ff       	mov    $0xffffffff,%eax
c0106e6b:	e9 82 00 00 00       	jmp    c0106ef2 <mem_sbrk+0xb4>
    }
    char* new = mem_brk + incr;
c0106e70:	8b 15 e8 b0 d0 c0    	mov    0xc0d0b0e8,%edx
c0106e76:	8b 45 08             	mov    0x8(%ebp),%eax
c0106e79:	01 d0                	add    %edx,%eax
c0106e7b:	89 45 f0             	mov    %eax,-0x10(%ebp)
    unsigned int diff = PG_ALIGN(new) - PG_ALIGN(old);
c0106e7e:	8b 45 f0             	mov    -0x10(%ebp),%eax
c0106e81:	25 00 f0 ff ff       	and    $0xfffff000,%eax
c0106e86:	89 c2                	mov    %eax,%edx
c0106e88:	8b 45 f4             	mov    -0xc(%ebp),%eax
c0106e8b:	25 00 f0 ff ff       	and    $0xfffff000,%eax
c0106e90:	89 c1                	mov    %eax,%ecx
c0106e92:	89 d0                	mov    %edx,%eax
c0106e94:	29 c8                	sub    %ecx,%eax
c0106e96:	89 45 ec             	mov    %eax,-0x14(%ebp)
    if(diff)
c0106e99:	83 7d ec 00          	cmpl   $0x0,-0x14(%ebp)
c0106e9d:	74 40                	je     c0106edf <mem_sbrk+0xa1>
    {
        uint8_t* pgaddr = -1;
c0106e9f:	c7 45 e8 ff ff ff ff 	movl   $0xffffffff,-0x18(%ebp)
        if(!(pgaddr = vmm_alloc_page(KERNEL_PID, new, NULL, PG_PREM_RW,PG_PREM_RW)))
c0106ea6:	83 ec 0c             	sub    $0xc,%esp
c0106ea9:	6a 03                	push   $0x3
c0106eab:	6a 03                	push   $0x3
c0106ead:	6a 00                	push   $0x0
c0106eaf:	ff 75 f0             	push   -0x10(%ebp)
c0106eb2:	6a ff                	push   $0xffffffff
c0106eb4:	e8 6e 08 00 00       	call   c0107727 <vmm_alloc_page>
c0106eb9:	83 c4 20             	add    $0x20,%esp
c0106ebc:	89 45 e8             	mov    %eax,-0x18(%ebp)
c0106ebf:	83 7d e8 00          	cmpl   $0x0,-0x18(%ebp)
c0106ec3:	75 07                	jne    c0106ecc <mem_sbrk+0x8e>
        {
            return NULL;
c0106ec5:	b8 00 00 00 00       	mov    $0x0,%eax
c0106eca:	eb 26                	jmp    c0106ef2 <mem_sbrk+0xb4>
        }
        kprintf("head new page is 0x%x\n", pgaddr);
c0106ecc:	83 ec 08             	sub    $0x8,%esp
c0106ecf:	ff 75 e8             	push   -0x18(%ebp)
c0106ed2:	68 c9 e1 d0 c0       	push   $0xc0d0e1c9
c0106ed7:	e8 e4 32 00 00       	call   c010a1c0 <kprintf>
c0106edc:	83 c4 10             	add    $0x10,%esp
    }
    mem_brk += incr;
c0106edf:	8b 15 e8 b0 d0 c0    	mov    0xc0d0b0e8,%edx
c0106ee5:	8b 45 08             	mov    0x8(%ebp),%eax
c0106ee8:	01 d0                	add    %edx,%eax
c0106eea:	a3 e8 b0 d0 c0       	mov    %eax,0xc0d0b0e8
    return (void*)old;
c0106eef:	8b 45 f4             	mov    -0xc(%ebp),%eax
}
c0106ef2:	c9                   	leave  
c0106ef3:	c3                   	ret    

c0106ef4 <malloc_init>:

int malloc_init()
{
c0106ef4:	55                   	push   %ebp
c0106ef5:	89 e5                	mov    %esp,%ebp
c0106ef7:	83 ec 08             	sub    $0x8,%esp
    if((heap_listp = mem_sbrk(4 * WSIZE)) == (void*) - 1)
c0106efa:	83 ec 0c             	sub    $0xc,%esp
c0106efd:	6a 10                	push   $0x10
c0106eff:	e8 3a ff ff ff       	call   c0106e3e <mem_sbrk>
c0106f04:	83 c4 10             	add    $0x10,%esp
c0106f07:	a3 e0 b0 d0 c0       	mov    %eax,0xc0d0b0e0
c0106f0c:	a1 e0 b0 d0 c0       	mov    0xc0d0b0e0,%eax
c0106f11:	83 f8 ff             	cmp    $0xffffffff,%eax
c0106f14:	75 07                	jne    c0106f1d <malloc_init+0x29>
        return -1;
c0106f16:	b8 ff ff ff ff       	mov    $0xffffffff,%eax
c0106f1b:	eb 62                	jmp    c0106f7f <malloc_init+0x8b>
    PUT(heap_listp, 0);
c0106f1d:	a1 e0 b0 d0 c0       	mov    0xc0d0b0e0,%eax
c0106f22:	c7 00 00 00 00 00    	movl   $0x0,(%eax)
    PUT(heap_listp + (1*WSIZE), PACK(DSIZE, 1));
c0106f28:	a1 e0 b0 d0 c0       	mov    0xc0d0b0e0,%eax
c0106f2d:	83 c0 04             	add    $0x4,%eax
c0106f30:	c7 00 09 00 00 00    	movl   $0x9,(%eax)
    PUT(heap_listp + (2*WSIZE), PACK(DSIZE, 1));
c0106f36:	a1 e0 b0 d0 c0       	mov    0xc0d0b0e0,%eax
c0106f3b:	83 c0 08             	add    $0x8,%eax
c0106f3e:	c7 00 09 00 00 00    	movl   $0x9,(%eax)
    PUT(heap_listp + (3*WSIZE), PACK(0, 1));
c0106f44:	a1 e0 b0 d0 c0       	mov    0xc0d0b0e0,%eax
c0106f49:	83 c0 0c             	add    $0xc,%eax
c0106f4c:	c7 00 01 00 00 00    	movl   $0x1,(%eax)
    heap_listp += (2*WSIZE);
c0106f52:	a1 e0 b0 d0 c0       	mov    0xc0d0b0e0,%eax
c0106f57:	83 c0 08             	add    $0x8,%eax
c0106f5a:	a3 e0 b0 d0 c0       	mov    %eax,0xc0d0b0e0

    //extend free heap with free blk og CHUNKSIZE size
    //mem_sbrk((CHUNKSIZE - WSIZE));
    if(extend_heap((CHUNKSIZE - WSIZE)  / WSIZE) == NULL)
c0106f5f:	83 ec 0c             	sub    $0xc,%esp
c0106f62:	68 ff 03 00 00       	push   $0x3ff
c0106f67:	e8 33 fb ff ff       	call   c0106a9f <extend_heap>
c0106f6c:	83 c4 10             	add    $0x10,%esp
c0106f6f:	85 c0                	test   %eax,%eax
c0106f71:	75 07                	jne    c0106f7a <malloc_init+0x86>
        return -1;
c0106f73:	b8 ff ff ff ff       	mov    $0xffffffff,%eax
c0106f78:	eb 05                	jmp    c0106f7f <malloc_init+0x8b>
    return 0;
c0106f7a:	b8 00 00 00 00       	mov    $0x0,%eax
}
c0106f7f:	c9                   	leave  
c0106f80:	c3                   	ret    

c0106f81 <malloc_free>:

void malloc_free(void* bp)
{
c0106f81:	55                   	push   %ebp
c0106f82:	89 e5                	mov    %esp,%ebp
c0106f84:	83 ec 10             	sub    $0x10,%esp
    size_t size = GET_SIZE(HDRP(bp));
c0106f87:	8b 45 08             	mov    0x8(%ebp),%eax
c0106f8a:	83 e8 04             	sub    $0x4,%eax
c0106f8d:	8b 00                	mov    (%eax),%eax
c0106f8f:	83 e0 f8             	and    $0xfffffff8,%eax
c0106f92:	89 45 fc             	mov    %eax,-0x4(%ebp)

    PUT(HDRP(bp), PACK(size, 0));
c0106f95:	8b 45 08             	mov    0x8(%ebp),%eax
c0106f98:	8d 50 fc             	lea    -0x4(%eax),%edx
c0106f9b:	8b 45 fc             	mov    -0x4(%ebp),%eax
c0106f9e:	89 02                	mov    %eax,(%edx)
    PUT(FTRP(bp), PACK(size, 0));
c0106fa0:	8b 45 08             	mov    0x8(%ebp),%eax
c0106fa3:	83 e8 04             	sub    $0x4,%eax
c0106fa6:	8b 00                	mov    (%eax),%eax
c0106fa8:	83 e0 f8             	and    $0xfffffff8,%eax
c0106fab:	8d 50 f8             	lea    -0x8(%eax),%edx
c0106fae:	8b 45 08             	mov    0x8(%ebp),%eax
c0106fb1:	01 c2                	add    %eax,%edx
c0106fb3:	8b 45 fc             	mov    -0x4(%ebp),%eax
c0106fb6:	89 02                	mov    %eax,(%edx)
    coalesce(bp);
c0106fb8:	ff 75 08             	push   0x8(%ebp)
c0106fbb:	e8 69 fb ff ff       	call   c0106b29 <coalesce>
c0106fc0:	83 c4 04             	add    $0x4,%esp
}
c0106fc3:	90                   	nop
c0106fc4:	c9                   	leave  
c0106fc5:	c3                   	ret    

c0106fc6 <k_malloc>:

void* k_malloc(size_t size)
{
c0106fc6:	55                   	push   %ebp
c0106fc7:	89 e5                	mov    %esp,%ebp
c0106fc9:	83 ec 18             	sub    $0x18,%esp
    size_t asize;
    size_t extendsize;
    char* bp;

    if(size == 0)
c0106fcc:	83 7d 08 00          	cmpl   $0x0,0x8(%ebp)
c0106fd0:	75 0a                	jne    c0106fdc <k_malloc+0x16>
        return NULL;
c0106fd2:	b8 00 00 00 00       	mov    $0x0,%eax
c0106fd7:	e9 8a 00 00 00       	jmp    c0107066 <k_malloc+0xa0>
    
    //THE MIN blk is 2*DSIZE, ONE DSIZE means head and foot, one is align
    if(size <= DSIZE)
c0106fdc:	83 7d 08 08          	cmpl   $0x8,0x8(%ebp)
c0106fe0:	77 09                	ja     c0106feb <k_malloc+0x25>
        asize = 2 * DSIZE;
c0106fe2:	c7 45 f4 10 00 00 00 	movl   $0x10,-0xc(%ebp)
c0106fe9:	eb 0e                	jmp    c0106ff9 <k_malloc+0x33>
    else
        asize = DSIZE * ((size + DSIZE) + (DSIZE - 1)) / DSIZE; // Round up 
c0106feb:	8b 45 08             	mov    0x8(%ebp),%eax
c0106fee:	83 c0 0f             	add    $0xf,%eax
c0106ff1:	25 ff ff ff 1f       	and    $0x1fffffff,%eax
c0106ff6:	89 45 f4             	mov    %eax,-0xc(%ebp)
    //search the free list of fit
    if((bp = find_fit(asize)) != NULL)
c0106ff9:	ff 75 f4             	push   -0xc(%ebp)
c0106ffc:	e8 c6 fc ff ff       	call   c0106cc7 <find_fit>
c0107001:	83 c4 04             	add    $0x4,%esp
c0107004:	89 45 f0             	mov    %eax,-0x10(%ebp)
c0107007:	83 7d f0 00          	cmpl   $0x0,-0x10(%ebp)
c010700b:	74 13                	je     c0107020 <k_malloc+0x5a>
    {
        place(bp, asize);
c010700d:	ff 75 f4             	push   -0xc(%ebp)
c0107010:	ff 75 f0             	push   -0x10(%ebp)
c0107013:	e8 12 fd ff ff       	call   c0106d2a <place>
c0107018:	83 c4 08             	add    $0x8,%esp
        return bp;
c010701b:	8b 45 f0             	mov    -0x10(%ebp),%eax
c010701e:	eb 46                	jmp    c0107066 <k_malloc+0xa0>
    }

    //no fit found try to extend head mem
    extendsize = MAX(asize, CHUNKSIZE);
c0107020:	8b 45 f4             	mov    -0xc(%ebp),%eax
c0107023:	ba 00 10 00 00       	mov    $0x1000,%edx
c0107028:	39 d0                	cmp    %edx,%eax
c010702a:	0f 42 c2             	cmovb  %edx,%eax
c010702d:	89 45 ec             	mov    %eax,-0x14(%ebp)
    if((bp = extend_heap(extendsize / WSIZE)) == NULL)
c0107030:	8b 45 ec             	mov    -0x14(%ebp),%eax
c0107033:	c1 e8 02             	shr    $0x2,%eax
c0107036:	83 ec 0c             	sub    $0xc,%esp
c0107039:	50                   	push   %eax
c010703a:	e8 60 fa ff ff       	call   c0106a9f <extend_heap>
c010703f:	83 c4 10             	add    $0x10,%esp
c0107042:	89 45 f0             	mov    %eax,-0x10(%ebp)
c0107045:	83 7d f0 00          	cmpl   $0x0,-0x10(%ebp)
c0107049:	75 07                	jne    c0107052 <k_malloc+0x8c>
        return NULL;
c010704b:	b8 00 00 00 00       	mov    $0x0,%eax
c0107050:	eb 14                	jmp    c0107066 <k_malloc+0xa0>
    place(bp, asize);
c0107052:	83 ec 08             	sub    $0x8,%esp
c0107055:	ff 75 f4             	push   -0xc(%ebp)
c0107058:	ff 75 f0             	push   -0x10(%ebp)
c010705b:	e8 ca fc ff ff       	call   c0106d2a <place>
c0107060:	83 c4 10             	add    $0x10,%esp
    return bp;
c0107063:	8b 45 f0             	mov    -0x10(%ebp),%eax
c0107066:	c9                   	leave  
c0107067:	c3                   	ret    

c0107068 <cpu_rcr2>:
{
c0107068:	55                   	push   %ebp
c0107069:	89 e5                	mov    %esp,%ebp
c010706b:	83 ec 10             	sub    $0x10,%esp
    asm volatile("movl %%cr2,%0" : "=r" (val));
c010706e:	0f 20 d0             	mov    %cr2,%eax
c0107071:	89 45 fc             	mov    %eax,-0x4(%ebp)
    return val;
c0107074:	8b 45 fc             	mov    -0x4(%ebp),%eax
}
c0107077:	c9                   	leave  
c0107078:	c3                   	ret    

c0107079 <cpu_invplg>:

reg32 cpu_r_cr3();


static inline void cpu_invplg(void* va)
{
c0107079:	55                   	push   %ebp
c010707a:	89 e5                	mov    %esp,%ebp
    asm volatile("invlpg (%0)" ::"r"((unsigned int)va) : "memory");
c010707c:	8b 45 08             	mov    0x8(%ebp),%eax
c010707f:	0f 01 38             	invlpg (%eax)
};
c0107082:	90                   	nop
c0107083:	5d                   	pop    %ebp
c0107084:	c3                   	ret    

c0107085 <do_page_fault>:
#include <kernel/memory/phy_mem.h>
#include <libs/mstdio.h>
#include <status.h>

void do_page_fault(unsigned long err_code, unsigned long address)
{
c0107085:	55                   	push   %ebp
c0107086:	89 e5                	mov    %esp,%ebp
c0107088:	83 ec 28             	sub    $0x28,%esp
    uintptr_t ptr = cpu_rcr2();
c010708b:	e8 d8 ff ff ff       	call   c0107068 <cpu_rcr2>
c0107090:	89 45 f4             	mov    %eax,-0xc(%ebp)
    if (!ptr) {
c0107093:	83 7d f4 00          	cmpl   $0x0,-0xc(%ebp)
c0107097:	0f 84 ea 00 00 00    	je     c0107187 <do_page_fault+0x102>
        goto segv_term;
    }

    struct mm_region* hit_region = region_get(__current, ptr);
c010709d:	a1 80 c1 d0 c0       	mov    0xc0d0c180,%eax
c01070a2:	83 ec 08             	sub    $0x8,%esp
c01070a5:	ff 75 f4             	push   -0xc(%ebp)
c01070a8:	50                   	push   %eax
c01070a9:	e8 8a 02 00 00       	call   c0107338 <region_get>
c01070ae:	83 c4 10             	add    $0x10,%esp
c01070b1:	89 45 f0             	mov    %eax,-0x10(%ebp)
    if (!hit_region) {
c01070b4:	83 7d f0 00          	cmpl   $0x0,-0x10(%ebp)
c01070b8:	0f 84 cc 00 00 00    	je     c010718a <do_page_fault+0x105>
        // Into the void...
        goto segv_term;
    }

    ptd_t* pte = PTE_MOUNTED(PD_REFERENCED, ptr >> 12);
c01070be:	8b 45 f4             	mov    -0xc(%ebp),%eax
c01070c1:	c1 e8 0c             	shr    $0xc,%eax
c01070c4:	25 ff 03 00 00       	and    $0x3ff,%eax
c01070c9:	8d 14 85 00 00 00 00 	lea    0x0(,%eax,4),%edx
c01070d0:	8b 45 f4             	mov    -0xc(%ebp),%eax
c01070d3:	c1 e8 0c             	shr    $0xc,%eax
c01070d6:	c1 e0 02             	shl    $0x2,%eax
c01070d9:	25 00 f0 3f 00       	and    $0x3ff000,%eax
c01070de:	0d 00 00 c0 ff       	or     $0xffc00000,%eax
c01070e3:	01 d0                	add    %edx,%eax
c01070e5:	8b 00                	mov    (%eax),%eax
c01070e7:	89 45 ec             	mov    %eax,-0x14(%ebp)
    if (*pte & PG_PRESENT) {
c01070ea:	8b 45 ec             	mov    -0x14(%ebp),%eax
c01070ed:	8b 00                	mov    (%eax),%eax
c01070ef:	83 e0 01             	and    $0x1,%eax
c01070f2:	85 c0                	test   %eax,%eax
c01070f4:	0f 85 93 00 00 00    	jne    c010718d <do_page_fault+0x108>
        }
        // impossible cases or accessing privileged page
        goto segv_term;
    }

    if (!(*pte)) {
c01070fa:	8b 45 ec             	mov    -0x14(%ebp),%eax
c01070fd:	8b 00                	mov    (%eax),%eax
c01070ff:	85 c0                	test   %eax,%eax
c0107101:	0f 84 89 00 00 00    	je     c0107190 <do_page_fault+0x10b>
        // Invalid location
        goto segv_term;
    }
    uintptr_t loc = *pte & ~0xfff;
c0107107:	8b 45 ec             	mov    -0x14(%ebp),%eax
c010710a:	8b 00                	mov    (%eax),%eax
c010710c:	25 00 f0 ff ff       	and    $0xfffff000,%eax
c0107111:	89 45 e8             	mov    %eax,-0x18(%ebp)
    // a writable page, not present, pte attr is not null
    //   and no indication of cached page -> a new page need to be alloc
    if ((hit_region->attr & REGION_WRITE) && (*pte & 0xfff) && !loc) {
c0107114:	8b 45 f0             	mov    -0x10(%ebp),%eax
c0107117:	8b 40 10             	mov    0x10(%eax),%eax
c010711a:	83 e0 08             	and    $0x8,%eax
c010711d:	85 c0                	test   %eax,%eax
c010711f:	74 4e                	je     c010716f <do_page_fault+0xea>
c0107121:	8b 45 ec             	mov    -0x14(%ebp),%eax
c0107124:	8b 00                	mov    (%eax),%eax
c0107126:	25 ff 0f 00 00       	and    $0xfff,%eax
c010712b:	85 c0                	test   %eax,%eax
c010712d:	74 40                	je     c010716f <do_page_fault+0xea>
c010712f:	83 7d e8 00          	cmpl   $0x0,-0x18(%ebp)
c0107133:	75 3a                	jne    c010716f <do_page_fault+0xea>
        cpu_invplg(pte);
c0107135:	83 ec 0c             	sub    $0xc,%esp
c0107138:	ff 75 ec             	push   -0x14(%ebp)
c010713b:	e8 39 ff ff ff       	call   c0107079 <cpu_invplg>
c0107140:	83 c4 10             	add    $0x10,%esp
        uintptr_t pa = pmm_alloc_page(__current->pid, 0);
c0107143:	a1 80 c1 d0 c0       	mov    0xc0d0c180,%eax
c0107148:	8b 00                	mov    (%eax),%eax
c010714a:	83 ec 08             	sub    $0x8,%esp
c010714d:	6a 00                	push   $0x0
c010714f:	50                   	push   %eax
c0107150:	e8 16 f7 ff ff       	call   c010686b <pmm_alloc_page>
c0107155:	83 c4 10             	add    $0x10,%esp
c0107158:	89 45 e4             	mov    %eax,-0x1c(%ebp)
        *pte = *pte | pa | PG_PRESENT;
c010715b:	8b 45 ec             	mov    -0x14(%ebp),%eax
c010715e:	8b 00                	mov    (%eax),%eax
c0107160:	0b 45 e4             	or     -0x1c(%ebp),%eax
c0107163:	83 c8 01             	or     $0x1,%eax
c0107166:	89 c2                	mov    %eax,%edx
c0107168:	8b 45 ec             	mov    -0x14(%ebp),%eax
c010716b:	89 10                	mov    %edx,(%eax)
        return;
c010716d:	eb 4c                	jmp    c01071bb <do_page_fault+0x136>
    }
    // page not present, bring it from disk or somewhere else
    kprintf("WIP page fault route,errcode = 0x%x,wrong address = 0x%x, pageaddress is 0x%x",err_code, address, ptr);
c010716f:	ff 75 f4             	push   -0xc(%ebp)
c0107172:	ff 75 0c             	push   0xc(%ebp)
c0107175:	ff 75 08             	push   0x8(%ebp)
c0107178:	68 e0 e1 d0 c0       	push   $0xc0d0e1e0
c010717d:	e8 3e 30 00 00       	call   c010a1c0 <kprintf>
c0107182:	83 c4 10             	add    $0x10,%esp
    while (1)
c0107185:	eb fe                	jmp    c0107185 <do_page_fault+0x100>
        goto segv_term;
c0107187:	90                   	nop
c0107188:	eb 07                	jmp    c0107191 <do_page_fault+0x10c>
        goto segv_term;
c010718a:	90                   	nop
c010718b:	eb 04                	jmp    c0107191 <do_page_fault+0x10c>
        goto segv_term;
c010718d:	90                   	nop
c010718e:	eb 01                	jmp    c0107191 <do_page_fault+0x10c>
        goto segv_term;
c0107190:	90                   	nop
        ;

segv_term:
    kprintf("[KERROR] (pid: %d) Segmentation fault on %x (%x)\n",
            __current->pid,
c0107191:	a1 80 c1 d0 c0       	mov    0xc0d0c180,%eax
c0107196:	8b 00                	mov    (%eax),%eax
    kprintf("[KERROR] (pid: %d) Segmentation fault on %x (%x)\n",
c0107198:	ff 75 0c             	push   0xc(%ebp)
c010719b:	ff 75 f4             	push   -0xc(%ebp)
c010719e:	50                   	push   %eax
c010719f:	68 30 e2 d0 c0       	push   $0xc0d0e230
c01071a4:	e8 17 30 00 00       	call   c010a1c0 <kprintf>
c01071a9:	83 c4 10             	add    $0x10,%esp
            ptr,
            address);
    terminate_proc(MXSEGFAULT);
c01071ac:	83 ec 0c             	sub    $0xc,%esp
c01071af:	6a fb                	push   $0xfffffffb
c01071b1:	e8 f1 2d 00 00       	call   c0109fa7 <terminate_proc>
c01071b6:	83 c4 10             	add    $0x10,%esp
    while(1);
c01071b9:	eb fe                	jmp    c01071b9 <do_page_fault+0x134>
    // should not reach
c01071bb:	c9                   	leave  
c01071bc:	c3                   	ret    

c01071bd <page_fault>:
c01071bd:	87 04 24             	xchg   %eax,(%esp)
c01071c0:	51                   	push   %ecx
c01071c1:	52                   	push   %edx
c01071c2:	1e                   	push   %ds
c01071c3:	06                   	push   %es
c01071c4:	0f a0                	push   %fs
c01071c6:	ba 10 00 00 00       	mov    $0x10,%edx
c01071cb:	8e da                	mov    %edx,%ds
c01071cd:	8e c2                	mov    %edx,%es
c01071cf:	8e e2                	mov    %edx,%fs
c01071d1:	8d 54 24 18          	lea    0x18(%esp),%edx
c01071d5:	52                   	push   %edx
c01071d6:	50                   	push   %eax
c01071d7:	e8 a9 fe ff ff       	call   c0107085 <do_page_fault>
c01071dc:	0f a1                	pop    %fs
c01071de:	07                   	pop    %es
c01071df:	1f                   	pop    %ds
c01071e0:	5a                   	pop    %edx
c01071e1:	59                   	pop    %ecx
c01071e2:	58                   	pop    %eax
c01071e3:	cf                   	iret   

c01071e4 <__llist_add>:
};

static inline void __llist_add(struct llist_header* elem,
            struct llist_header* prev,
            struct llist_header* next)
{
c01071e4:	55                   	push   %ebp
c01071e5:	89 e5                	mov    %esp,%ebp
    next->prev = elem;
c01071e7:	8b 45 10             	mov    0x10(%ebp),%eax
c01071ea:	8b 55 08             	mov    0x8(%ebp),%edx
c01071ed:	89 10                	mov    %edx,(%eax)
    elem->next = next;
c01071ef:	8b 45 08             	mov    0x8(%ebp),%eax
c01071f2:	8b 55 10             	mov    0x10(%ebp),%edx
c01071f5:	89 50 04             	mov    %edx,0x4(%eax)
    elem->prev = prev;
c01071f8:	8b 45 08             	mov    0x8(%ebp),%eax
c01071fb:	8b 55 0c             	mov    0xc(%ebp),%edx
c01071fe:	89 10                	mov    %edx,(%eax)
    prev->next = elem;
c0107200:	8b 45 0c             	mov    0xc(%ebp),%eax
c0107203:	8b 55 08             	mov    0x8(%ebp),%edx
c0107206:	89 50 04             	mov    %edx,0x4(%eax)
}
c0107209:	90                   	nop
c010720a:	5d                   	pop    %ebp
c010720b:	c3                   	ret    

c010720c <llist_init_head>:

static inline void llist_init_head(struct llist_header* head) {
c010720c:	55                   	push   %ebp
c010720d:	89 e5                	mov    %esp,%ebp
    head->next = head;
c010720f:	8b 45 08             	mov    0x8(%ebp),%eax
c0107212:	8b 55 08             	mov    0x8(%ebp),%edx
c0107215:	89 50 04             	mov    %edx,0x4(%eax)
    head->prev = head;
c0107218:	8b 45 08             	mov    0x8(%ebp),%eax
c010721b:	8b 55 08             	mov    0x8(%ebp),%edx
c010721e:	89 10                	mov    %edx,(%eax)
}
c0107220:	90                   	nop
c0107221:	5d                   	pop    %ebp
c0107222:	c3                   	ret    

c0107223 <llist_append>:

static inline void llist_append(struct llist_header* head, struct llist_header* elem)
{
c0107223:	55                   	push   %ebp
c0107224:	89 e5                	mov    %esp,%ebp
    __llist_add(elem, head, head->next);
c0107226:	8b 45 08             	mov    0x8(%ebp),%eax
c0107229:	8b 40 04             	mov    0x4(%eax),%eax
c010722c:	50                   	push   %eax
c010722d:	ff 75 08             	push   0x8(%ebp)
c0107230:	ff 75 0c             	push   0xc(%ebp)
c0107233:	e8 ac ff ff ff       	call   c01071e4 <__llist_add>
c0107238:	83 c4 0c             	add    $0xc,%esp
}
c010723b:	90                   	nop
c010723c:	c9                   	leave  
c010723d:	c3                   	ret    

c010723e <region_add>:
#include <kernel/memory/region.h>
#include <kernel/memory/malloc.h>
#include <libs/list.h>
void region_add(struct m_pcb* proc,unsigned long start, unsigned long end, unsigned int attr) {
c010723e:	55                   	push   %ebp
c010723f:	89 e5                	mov    %esp,%ebp
c0107241:	83 ec 28             	sub    $0x28,%esp
    struct mm_region* region = k_malloc(sizeof(struct mm_region));
c0107244:	83 ec 0c             	sub    $0xc,%esp
c0107247:	6a 14                	push   $0x14
c0107249:	e8 78 fd ff ff       	call   c0106fc6 <k_malloc>
c010724e:	83 c4 10             	add    $0x10,%esp
c0107251:	89 45 f4             	mov    %eax,-0xc(%ebp)

    *region = (struct mm_region) {
c0107254:	8b 45 f4             	mov    -0xc(%ebp),%eax
c0107257:	c7 00 00 00 00 00    	movl   $0x0,(%eax)
c010725d:	c7 40 04 00 00 00 00 	movl   $0x0,0x4(%eax)
c0107264:	c7 40 08 00 00 00 00 	movl   $0x0,0x8(%eax)
c010726b:	c7 40 0c 00 00 00 00 	movl   $0x0,0xc(%eax)
c0107272:	c7 40 10 00 00 00 00 	movl   $0x0,0x10(%eax)
c0107279:	8b 45 f4             	mov    -0xc(%ebp),%eax
c010727c:	8b 55 0c             	mov    0xc(%ebp),%edx
c010727f:	89 50 08             	mov    %edx,0x8(%eax)
c0107282:	8b 45 f4             	mov    -0xc(%ebp),%eax
c0107285:	8b 55 10             	mov    0x10(%ebp),%edx
c0107288:	89 50 0c             	mov    %edx,0xc(%eax)
c010728b:	8b 45 f4             	mov    -0xc(%ebp),%eax
c010728e:	8b 55 14             	mov    0x14(%ebp),%edx
c0107291:	89 50 10             	mov    %edx,0x10(%eax)
        .attr = attr,
        .end = end,
        .start = start
    };
    if (!proc->process_mm) {
c0107294:	8b 45 08             	mov    0x8(%ebp),%eax
c0107297:	8b 40 58             	mov    0x58(%eax),%eax
c010729a:	85 c0                	test   %eax,%eax
c010729c:	75 1a                	jne    c01072b8 <region_add+0x7a>
        llist_init_head(&region->head);
c010729e:	8b 45 f4             	mov    -0xc(%ebp),%eax
c01072a1:	83 ec 0c             	sub    $0xc,%esp
c01072a4:	50                   	push   %eax
c01072a5:	e8 62 ff ff ff       	call   c010720c <llist_init_head>
c01072aa:	83 c4 10             	add    $0x10,%esp
        proc->process_mm = region;
c01072ad:	8b 45 08             	mov    0x8(%ebp),%eax
c01072b0:	8b 55 f4             	mov    -0xc(%ebp),%edx
c01072b3:	89 50 58             	mov    %edx,0x58(%eax)
    }
    else {
        llist_append(&proc->process_mm->head, &region->head);
    }
}
c01072b6:	eb 16                	jmp    c01072ce <region_add+0x90>
        llist_append(&proc->process_mm->head, &region->head);
c01072b8:	8b 45 f4             	mov    -0xc(%ebp),%eax
c01072bb:	8b 55 08             	mov    0x8(%ebp),%edx
c01072be:	8b 52 58             	mov    0x58(%edx),%edx
c01072c1:	83 ec 08             	sub    $0x8,%esp
c01072c4:	50                   	push   %eax
c01072c5:	52                   	push   %edx
c01072c6:	e8 58 ff ff ff       	call   c0107223 <llist_append>
c01072cb:	83 c4 10             	add    $0x10,%esp
}
c01072ce:	90                   	nop
c01072cf:	c9                   	leave  
c01072d0:	c3                   	ret    

c01072d1 <region_release_all>:

void region_release_all(struct m_pcb* proc) {
c01072d1:	55                   	push   %ebp
c01072d2:	89 e5                	mov    %esp,%ebp
c01072d4:	83 ec 28             	sub    $0x28,%esp
    struct mm_region* head = proc->process_mm;
c01072d7:	8b 45 08             	mov    0x8(%ebp),%eax
c01072da:	8b 40 58             	mov    0x58(%eax),%eax
c01072dd:	89 45 ec             	mov    %eax,-0x14(%ebp)
    struct mm_region *pos, *n;

    llist_for_each(pos, n, &head->head, head) {
c01072e0:	8b 45 ec             	mov    -0x14(%ebp),%eax
c01072e3:	8b 40 04             	mov    0x4(%eax),%eax
c01072e6:	89 45 e8             	mov    %eax,-0x18(%ebp)
c01072e9:	8b 45 e8             	mov    -0x18(%ebp),%eax
c01072ec:	89 45 f4             	mov    %eax,-0xc(%ebp)
c01072ef:	8b 45 f4             	mov    -0xc(%ebp),%eax
c01072f2:	8b 40 04             	mov    0x4(%eax),%eax
c01072f5:	89 45 e4             	mov    %eax,-0x1c(%ebp)
c01072f8:	8b 45 e4             	mov    -0x1c(%ebp),%eax
c01072fb:	89 45 f0             	mov    %eax,-0x10(%ebp)
c01072fe:	eb 23                	jmp    c0107323 <region_release_all+0x52>
        malloc_free(pos);
c0107300:	83 ec 0c             	sub    $0xc,%esp
c0107303:	ff 75 f4             	push   -0xc(%ebp)
c0107306:	e8 76 fc ff ff       	call   c0106f81 <malloc_free>
c010730b:	83 c4 10             	add    $0x10,%esp
    llist_for_each(pos, n, &head->head, head) {
c010730e:	8b 45 f0             	mov    -0x10(%ebp),%eax
c0107311:	89 45 f4             	mov    %eax,-0xc(%ebp)
c0107314:	8b 45 f0             	mov    -0x10(%ebp),%eax
c0107317:	8b 40 04             	mov    0x4(%eax),%eax
c010731a:	89 45 e0             	mov    %eax,-0x20(%ebp)
c010731d:	8b 45 e0             	mov    -0x20(%ebp),%eax
c0107320:	89 45 f0             	mov    %eax,-0x10(%ebp)
c0107323:	8b 45 f4             	mov    -0xc(%ebp),%eax
c0107326:	3b 45 ec             	cmp    -0x14(%ebp),%eax
c0107329:	75 d5                	jne    c0107300 <region_release_all+0x2f>
    }

    proc->process_mm = NULL;
c010732b:	8b 45 08             	mov    0x8(%ebp),%eax
c010732e:	c7 40 58 00 00 00 00 	movl   $0x0,0x58(%eax)
}
c0107335:	90                   	nop
c0107336:	c9                   	leave  
c0107337:	c3                   	ret    

c0107338 <region_get>:

struct mm_region* region_get(struct m_pcb* proc, unsigned long vaddr) {
c0107338:	55                   	push   %ebp
c0107339:	89 e5                	mov    %esp,%ebp
c010733b:	83 ec 20             	sub    $0x20,%esp
    struct mm_region* head = proc->process_mm;
c010733e:	8b 45 08             	mov    0x8(%ebp),%eax
c0107341:	8b 40 58             	mov    0x58(%eax),%eax
c0107344:	89 45 f4             	mov    %eax,-0xc(%ebp)
    
    if (!head) {
c0107347:	83 7d f4 00          	cmpl   $0x0,-0xc(%ebp)
c010734b:	75 07                	jne    c0107354 <region_get+0x1c>
        return NULL;
c010734d:	b8 00 00 00 00       	mov    $0x0,%eax
c0107352:	eb 5d                	jmp    c01073b1 <region_get+0x79>
    }

    struct mm_region *pos, *n;

    llist_for_each(pos, n, &head->head, head) {
c0107354:	8b 45 f4             	mov    -0xc(%ebp),%eax
c0107357:	8b 40 04             	mov    0x4(%eax),%eax
c010735a:	89 45 f0             	mov    %eax,-0x10(%ebp)
c010735d:	8b 45 f0             	mov    -0x10(%ebp),%eax
c0107360:	89 45 fc             	mov    %eax,-0x4(%ebp)
c0107363:	8b 45 fc             	mov    -0x4(%ebp),%eax
c0107366:	8b 40 04             	mov    0x4(%eax),%eax
c0107369:	89 45 ec             	mov    %eax,-0x14(%ebp)
c010736c:	8b 45 ec             	mov    -0x14(%ebp),%eax
c010736f:	89 45 f8             	mov    %eax,-0x8(%ebp)
c0107372:	eb 30                	jmp    c01073a4 <region_get+0x6c>
        if (vaddr >= pos->start && vaddr < pos->end) {
c0107374:	8b 45 fc             	mov    -0x4(%ebp),%eax
c0107377:	8b 40 08             	mov    0x8(%eax),%eax
c010737a:	39 45 0c             	cmp    %eax,0xc(%ebp)
c010737d:	72 10                	jb     c010738f <region_get+0x57>
c010737f:	8b 45 fc             	mov    -0x4(%ebp),%eax
c0107382:	8b 40 0c             	mov    0xc(%eax),%eax
c0107385:	39 45 0c             	cmp    %eax,0xc(%ebp)
c0107388:	73 05                	jae    c010738f <region_get+0x57>
            return pos;
c010738a:	8b 45 fc             	mov    -0x4(%ebp),%eax
c010738d:	eb 22                	jmp    c01073b1 <region_get+0x79>
    llist_for_each(pos, n, &head->head, head) {
c010738f:	8b 45 f8             	mov    -0x8(%ebp),%eax
c0107392:	89 45 fc             	mov    %eax,-0x4(%ebp)
c0107395:	8b 45 f8             	mov    -0x8(%ebp),%eax
c0107398:	8b 40 04             	mov    0x4(%eax),%eax
c010739b:	89 45 e8             	mov    %eax,-0x18(%ebp)
c010739e:	8b 45 e8             	mov    -0x18(%ebp),%eax
c01073a1:	89 45 f8             	mov    %eax,-0x8(%ebp)
c01073a4:	8b 45 fc             	mov    -0x4(%ebp),%eax
c01073a7:	3b 45 f4             	cmp    -0xc(%ebp),%eax
c01073aa:	75 c8                	jne    c0107374 <region_get+0x3c>
        }
    }
    return NULL;
c01073ac:	b8 00 00 00 00       	mov    $0x0,%eax
c01073b1:	c9                   	leave  
c01073b2:	c3                   	ret    

c01073b3 <cpu_invplg>:
{
c01073b3:	55                   	push   %ebp
c01073b4:	89 e5                	mov    %esp,%ebp
    asm volatile("invlpg (%0)" ::"r"((unsigned int)va) : "memory");
c01073b6:	8b 45 08             	mov    0x8(%ebp),%eax
c01073b9:	0f 01 38             	invlpg (%eax)
};
c01073bc:	90                   	nop
c01073bd:	5d                   	pop    %ebp
c01073be:	c3                   	ret    

c01073bf <vmm_init>:
#include <kernel/memory/vir_mem.h>
#include <libs/mstring.h>
#include <libs/mstdio.h>

void vmm_init() {
c01073bf:	55                   	push   %ebp
c01073c0:	89 e5                	mov    %esp,%ebp
    // TODO: something here?
}
c01073c2:	90                   	nop
c01073c3:	5d                   	pop    %ebp
c01073c4:	c3                   	ret    

c01073c5 <get_pd>:

// TODO: Move these nasty inline asm stuff into hal
//      These should be arch dependent
ptd_t* get_pd() {
c01073c5:	55                   	push   %ebp
c01073c6:	89 e5                	mov    %esp,%ebp
c01073c8:	83 ec 10             	sub    $0x10,%esp
    ptd_t* pd;
    #ifdef __ARCH_IA32
    __asm__(
c01073cb:	0f 20 d8             	mov    %cr3,%eax
c01073ce:	25 00 f0 ff ff       	and    $0xfffff000,%eax
c01073d3:	89 45 fc             	mov    %eax,-0x4(%ebp)
        "movl %%cr3, %0\n"
        "andl $0xfffff000, %0"
        : "=r"(pd)
    );
    #endif
    return P2V(pd);
c01073d6:	8b 45 fc             	mov    -0x4(%ebp),%eax
c01073d9:	2d 00 00 00 40       	sub    $0x40000000,%eax
}
c01073de:	c9                   	leave  
c01073df:	c3                   	ret    

c01073e0 <set_pd>:

void set_pd(ptd_t* pd) {
c01073e0:	55                   	push   %ebp
c01073e1:	89 e5                	mov    %esp,%ebp
    #ifdef __ARCH_IA32
    __asm__(
c01073e3:	8b 45 08             	mov    0x8(%ebp),%eax
c01073e6:	89 c0                	mov    %eax,%eax
c01073e8:	25 00 f0 ff ff       	and    $0xfffff000,%eax
c01073ed:	0f 22 d8             	mov    %eax,%cr3
        "movl %%eax, %%cr3\n"
        :
        : "r" (pd)
    );
    #endif
}
c01073f0:	90                   	nop
c01073f1:	5d                   	pop    %ebp
c01073f2:	c3                   	ret    

c01073f3 <vmm_init_pd>:

ptd_t* vmm_init_pd() {
c01073f3:	55                   	push   %ebp
c01073f4:	89 e5                	mov    %esp,%ebp
c01073f6:	83 ec 18             	sub    $0x18,%esp
    ptd_t* dir = pmm_alloc_page(KERNEL_PID, PP_FGPERSIST);
c01073f9:	83 ec 08             	sub    $0x8,%esp
c01073fc:	6a 01                	push   $0x1
c01073fe:	6a ff                	push   $0xffffffff
c0107400:	e8 66 f4 ff ff       	call   c010686b <pmm_alloc_page>
c0107405:	83 c4 10             	add    $0x10,%esp
c0107408:	89 45 f0             	mov    %eax,-0x10(%ebp)
    for (size_t i = 0; i < 1024; i++)
c010740b:	c7 45 f4 00 00 00 00 	movl   $0x0,-0xc(%ebp)
c0107412:	eb 19                	jmp    c010742d <vmm_init_pd+0x3a>
    {
        dir[i] = 0;
c0107414:	8b 45 f4             	mov    -0xc(%ebp),%eax
c0107417:	8d 14 85 00 00 00 00 	lea    0x0(,%eax,4),%edx
c010741e:	8b 45 f0             	mov    -0x10(%ebp),%eax
c0107421:	01 d0                	add    %edx,%eax
c0107423:	c7 00 00 00 00 00    	movl   $0x0,(%eax)
    for (size_t i = 0; i < 1024; i++)
c0107429:	83 45 f4 01          	addl   $0x1,-0xc(%ebp)
c010742d:	81 7d f4 ff 03 00 00 	cmpl   $0x3ff,-0xc(%ebp)
c0107434:	76 de                	jbe    c0107414 <vmm_init_pd+0x21>
    }
    
    // 自己映射自己，方便我们在软件层面进行查表地址转换
    dir[1023] = PDE(T_SELF_REF_PERM, dir);
c0107436:	8b 45 f0             	mov    -0x10(%ebp),%eax
c0107439:	25 00 f0 ff ff       	and    $0xfffff000,%eax
c010743e:	89 c2                	mov    %eax,%edx
c0107440:	8b 45 f0             	mov    -0x10(%ebp),%eax
c0107443:	05 fc 0f 00 00       	add    $0xffc,%eax
c0107448:	83 ca 1b             	or     $0x1b,%edx
c010744b:	89 10                	mov    %edx,(%eax)

    return dir;
c010744d:	8b 45 f0             	mov    -0x10(%ebp),%eax
}
c0107450:	c9                   	leave  
c0107451:	c3                   	ret    

c0107452 <__vmm_map_alloc>:
                   uint32_t l1_inx,
                   uint32_t l2_inx,
                   uintptr_t pa,
                   pt_attr attr,
                   int forced)
{
c0107452:	55                   	push   %ebp
c0107453:	89 e5                	mov    %esp,%ebp
c0107455:	53                   	push   %ebx
c0107456:	83 ec 14             	sub    $0x14,%esp
    ptd_t* ptd = (ptd_t*)PTD_BASE_VADDR;
c0107459:	c7 45 f4 00 f0 ff ff 	movl   $0xfffff000,-0xc(%ebp)
    pt_t* pt = (uintptr_t)PT_VADDR(l1_inx);
c0107460:	8b 45 0c             	mov    0xc(%ebp),%eax
c0107463:	c1 e0 0c             	shl    $0xc,%eax
c0107466:	0d 00 00 c0 ff       	or     $0xffc00000,%eax
c010746b:	89 45 f0             	mov    %eax,-0x10(%ebp)


    // See if attr make sense
    if(attr > 128)
c010746e:	81 7d 18 80 00 00 00 	cmpl   $0x80,0x18(%ebp)
c0107475:	76 1a                	jbe    c0107491 <__vmm_map_alloc+0x3f>
    {
        kprintf("__vmm_map_alloc false, attr > 128!");
c0107477:	83 ec 0c             	sub    $0xc,%esp
c010747a:	68 64 e2 d0 c0       	push   $0xc0d0e264
c010747f:	e8 3c 2d 00 00       	call   c010a1c0 <kprintf>
c0107484:	83 c4 10             	add    $0x10,%esp
        return 0;
c0107487:	b8 00 00 00 00       	mov    $0x0,%eax
c010748c:	e9 ea 00 00 00       	jmp    c010757b <__vmm_map_alloc+0x129>
    }

    if (!ptd[l1_inx]) {
c0107491:	8b 45 0c             	mov    0xc(%ebp),%eax
c0107494:	8d 14 85 00 00 00 00 	lea    0x0(,%eax,4),%edx
c010749b:	8b 45 f4             	mov    -0xc(%ebp),%eax
c010749e:	01 d0                	add    %edx,%eax
c01074a0:	8b 00                	mov    (%eax),%eax
c01074a2:	85 c0                	test   %eax,%eax
c01074a4:	75 6b                	jne    c0107511 <__vmm_map_alloc+0xbf>
        uint8_t* new_pt_pa = pmm_alloc_page(pid, PP_FGPERSIST);
c01074a6:	83 ec 08             	sub    $0x8,%esp
c01074a9:	6a 01                	push   $0x1
c01074ab:	ff 75 08             	push   0x8(%ebp)
c01074ae:	e8 b8 f3 ff ff       	call   c010686b <pmm_alloc_page>
c01074b3:	83 c4 10             	add    $0x10,%esp
c01074b6:	89 45 ec             	mov    %eax,-0x14(%ebp)

        // 物理内存已满！
        if (!new_pt_pa) {
c01074b9:	83 7d ec 00          	cmpl   $0x0,-0x14(%ebp)
c01074bd:	75 0a                	jne    c01074c9 <__vmm_map_alloc+0x77>
            return 0;
c01074bf:	b8 00 00 00 00       	mov    $0x0,%eax
c01074c4:	e9 b2 00 00 00       	jmp    c010757b <__vmm_map_alloc+0x129>
        }

        // This must be writable
        ptd[l1_inx] = PDE(attr | PG_WRITE, new_pt_pa);
c01074c9:	8b 45 ec             	mov    -0x14(%ebp),%eax
c01074cc:	25 00 f0 ff ff       	and    $0xfffff000,%eax
c01074d1:	89 c1                	mov    %eax,%ecx
c01074d3:	8b 45 18             	mov    0x18(%ebp),%eax
c01074d6:	83 c8 0a             	or     $0xa,%eax
c01074d9:	25 ff 0f 00 00       	and    $0xfff,%eax
c01074de:	89 c2                	mov    %eax,%edx
c01074e0:	8b 45 0c             	mov    0xc(%ebp),%eax
c01074e3:	8d 1c 85 00 00 00 00 	lea    0x0(,%eax,4),%ebx
c01074ea:	8b 45 f4             	mov    -0xc(%ebp),%eax
c01074ed:	01 d8                	add    %ebx,%eax
c01074ef:	09 ca                	or     %ecx,%edx
c01074f1:	89 10                	mov    %edx,(%eax)
        memset((void*)PT_VADDR(l1_inx), 0, PM_PAGE_SIZE);
c01074f3:	8b 45 0c             	mov    0xc(%ebp),%eax
c01074f6:	c1 e0 0c             	shl    $0xc,%eax
c01074f9:	0d 00 00 c0 ff       	or     $0xffc00000,%eax
c01074fe:	83 ec 04             	sub    $0x4,%esp
c0107501:	68 00 10 00 00       	push   $0x1000
c0107506:	6a 00                	push   $0x0
c0107508:	50                   	push   %eax
c0107509:	e8 49 2f 00 00       	call   c010a457 <memset>
c010750e:	83 c4 10             	add    $0x10,%esp
    }

    if (pt[l2_inx]) {
c0107511:	8b 45 10             	mov    0x10(%ebp),%eax
c0107514:	8d 14 85 00 00 00 00 	lea    0x0(,%eax,4),%edx
c010751b:	8b 45 f0             	mov    -0x10(%ebp),%eax
c010751e:	01 d0                	add    %edx,%eax
c0107520:	8b 00                	mov    (%eax),%eax
c0107522:	85 c0                	test   %eax,%eax
c0107524:	74 0d                	je     c0107533 <__vmm_map_alloc+0xe1>
        if (!forced) {
c0107526:	83 7d 1c 00          	cmpl   $0x0,0x1c(%ebp)
c010752a:	75 07                	jne    c0107533 <__vmm_map_alloc+0xe1>
            return 0;
c010752c:	b8 00 00 00 00       	mov    $0x0,%eax
c0107531:	eb 48                	jmp    c010757b <__vmm_map_alloc+0x129>
        }
    }

    if ((HAS_FLAGS(attr, PG_PRESENT))) {
c0107533:	8b 45 18             	mov    0x18(%ebp),%eax
c0107536:	83 e0 01             	and    $0x1,%eax
c0107539:	85 c0                	test   %eax,%eax
c010753b:	74 12                	je     c010754f <__vmm_map_alloc+0xfd>
        // add one on reference count, regardless of existence.
        pmm_ref_page(pid, pa);
c010753d:	8b 45 14             	mov    0x14(%ebp),%eax
c0107540:	83 ec 08             	sub    $0x8,%esp
c0107543:	50                   	push   %eax
c0107544:	ff 75 08             	push   0x8(%ebp)
c0107547:	e8 ef f4 ff ff       	call   c0106a3b <pmm_ref_page>
c010754c:	83 c4 10             	add    $0x10,%esp
    }

    pt[l2_inx] = PTE(attr, pa);
c010754f:	8b 45 14             	mov    0x14(%ebp),%eax
c0107552:	25 00 f0 ff ff       	and    $0xfffff000,%eax
c0107557:	89 c1                	mov    %eax,%ecx
c0107559:	8b 45 18             	mov    0x18(%ebp),%eax
c010755c:	25 ff 0f 00 00       	and    $0xfff,%eax
c0107561:	89 c2                	mov    %eax,%edx
c0107563:	8b 45 10             	mov    0x10(%ebp),%eax
c0107566:	8d 1c 85 00 00 00 00 	lea    0x0(,%eax,4),%ebx
c010756d:	8b 45 f0             	mov    -0x10(%ebp),%eax
c0107570:	01 d8                	add    %ebx,%eax
c0107572:	09 ca                	or     %ecx,%edx
c0107574:	89 10                	mov    %edx,(%eax)

    return 1;
c0107576:	b8 01 00 00 00       	mov    $0x1,%eax
}
c010757b:	8b 5d fc             	mov    -0x4(%ebp),%ebx
c010757e:	c9                   	leave  
c010757f:	c3                   	ret    

c0107580 <vmm_map_page>:

void* vmm_map_page(pid_t pid, void* va, void* pa, pt_attr dattr, pt_attr tattr) {
c0107580:	55                   	push   %ebp
c0107581:	89 e5                	mov    %esp,%ebp
c0107583:	83 ec 28             	sub    $0x28,%esp
    // 显然，对空指针进行映射没有意义。
    if (!pa || !va) {
c0107586:	83 7d 10 00          	cmpl   $0x0,0x10(%ebp)
c010758a:	74 06                	je     c0107592 <vmm_map_page+0x12>
c010758c:	83 7d 0c 00          	cmpl   $0x0,0xc(%ebp)
c0107590:	75 0a                	jne    c010759c <vmm_map_page+0x1c>
        return NULL;
c0107592:	b8 00 00 00 00       	mov    $0x0,%eax
c0107597:	e9 1e 01 00 00       	jmp    c01076ba <vmm_map_page+0x13a>
    }

    uintptr_t pd_offset = PD_INDEX(va);
c010759c:	8b 45 0c             	mov    0xc(%ebp),%eax
c010759f:	c1 e8 16             	shr    $0x16,%eax
c01075a2:	89 45 f4             	mov    %eax,-0xc(%ebp)
    uintptr_t pt_offset = PT_INDEX(va);
c01075a5:	8b 45 0c             	mov    0xc(%ebp),%eax
c01075a8:	c1 e8 0c             	shr    $0xc,%eax
c01075ab:	25 ff 03 00 00       	and    $0x3ff,%eax
c01075b0:	89 45 f0             	mov    %eax,-0x10(%ebp)
    ptd_t* ptd = (ptd_t*)PTD_BASE_VADDR;
c01075b3:	c7 45 e8 00 f0 ff ff 	movl   $0xfffff000,-0x18(%ebp)

    // 在页表与页目录中找到一个可用的空位进行映射（位于va或其附近）
    ptd_t* pde = ptd[pd_offset];
c01075ba:	8b 45 f4             	mov    -0xc(%ebp),%eax
c01075bd:	8d 14 85 00 00 00 00 	lea    0x0(,%eax,4),%edx
c01075c4:	8b 45 e8             	mov    -0x18(%ebp),%eax
c01075c7:	01 d0                	add    %edx,%eax
c01075c9:	8b 00                	mov    (%eax),%eax
c01075cb:	89 45 ec             	mov    %eax,-0x14(%ebp)
    pt_t* pt = (uintptr_t)PT_VADDR(pd_offset);
c01075ce:	8b 45 f4             	mov    -0xc(%ebp),%eax
c01075d1:	c1 e0 0c             	shl    $0xc,%eax
c01075d4:	0d 00 00 c0 ff       	or     $0xffc00000,%eax
c01075d9:	89 45 e4             	mov    %eax,-0x1c(%ebp)
    while (pde && pd_offset < 1024) {
c01075dc:	eb 77                	jmp    c0107655 <vmm_map_page+0xd5>
        if (pt_offset == 1024) {
c01075de:	81 7d f0 00 04 00 00 	cmpl   $0x400,-0x10(%ebp)
c01075e5:	75 2d                	jne    c0107614 <vmm_map_page+0x94>
            pd_offset++;
c01075e7:	83 45 f4 01          	addl   $0x1,-0xc(%ebp)
            pt_offset = 0;
c01075eb:	c7 45 f0 00 00 00 00 	movl   $0x0,-0x10(%ebp)
            pde = ptd[pd_offset];
c01075f2:	8b 45 f4             	mov    -0xc(%ebp),%eax
c01075f5:	8d 14 85 00 00 00 00 	lea    0x0(,%eax,4),%edx
c01075fc:	8b 45 e8             	mov    -0x18(%ebp),%eax
c01075ff:	01 d0                	add    %edx,%eax
c0107601:	8b 00                	mov    (%eax),%eax
c0107603:	89 45 ec             	mov    %eax,-0x14(%ebp)
            pt = (pt_t*)PT_VADDR(pd_offset);
c0107606:	8b 45 f4             	mov    -0xc(%ebp),%eax
c0107609:	c1 e0 0c             	shl    $0xc,%eax
c010760c:	0d 00 00 c0 ff       	or     $0xffc00000,%eax
c0107611:	89 45 e4             	mov    %eax,-0x1c(%ebp)
        }
        // 页表有空位，只需要开辟一个新的 PTE
        if (__vmm_map_alloc(pid, pd_offset, pt_offset, pa, dattr, false)) {
c0107614:	8b 45 10             	mov    0x10(%ebp),%eax
c0107617:	83 ec 08             	sub    $0x8,%esp
c010761a:	6a 00                	push   $0x0
c010761c:	ff 75 14             	push   0x14(%ebp)
c010761f:	50                   	push   %eax
c0107620:	ff 75 f0             	push   -0x10(%ebp)
c0107623:	ff 75 f4             	push   -0xc(%ebp)
c0107626:	ff 75 08             	push   0x8(%ebp)
c0107629:	e8 24 fe ff ff       	call   c0107452 <__vmm_map_alloc>
c010762e:	83 c4 20             	add    $0x20,%esp
c0107631:	85 c0                	test   %eax,%eax
c0107633:	74 1c                	je     c0107651 <vmm_map_page+0xd1>
            return (void*)V_ADDR(pd_offset, pt_offset, PG_OFFSET(va));
c0107635:	8b 45 f4             	mov    -0xc(%ebp),%eax
c0107638:	c1 e0 16             	shl    $0x16,%eax
c010763b:	89 c2                	mov    %eax,%edx
c010763d:	8b 45 f0             	mov    -0x10(%ebp),%eax
c0107640:	c1 e0 0c             	shl    $0xc,%eax
c0107643:	09 c2                	or     %eax,%edx
c0107645:	8b 45 0c             	mov    0xc(%ebp),%eax
c0107648:	25 ff 0f 00 00       	and    $0xfff,%eax
c010764d:	09 d0                	or     %edx,%eax
c010764f:	eb 69                	jmp    c01076ba <vmm_map_page+0x13a>
        }
        pt_offset++;
c0107651:	83 45 f0 01          	addl   $0x1,-0x10(%ebp)
    while (pde && pd_offset < 1024) {
c0107655:	83 7d ec 00          	cmpl   $0x0,-0x14(%ebp)
c0107659:	74 0d                	je     c0107668 <vmm_map_page+0xe8>
c010765b:	81 7d f4 ff 03 00 00 	cmpl   $0x3ff,-0xc(%ebp)
c0107662:	0f 86 76 ff ff ff    	jbe    c01075de <vmm_map_page+0x5e>
    }
    
    // 页目录与所有页表已满！
    if (pd_offset > 1024) {
c0107668:	81 7d f4 00 04 00 00 	cmpl   $0x400,-0xc(%ebp)
c010766f:	76 07                	jbe    c0107678 <vmm_map_page+0xf8>
        return NULL;
c0107671:	b8 00 00 00 00       	mov    $0x0,%eax
c0107676:	eb 42                	jmp    c01076ba <vmm_map_page+0x13a>
    }

    if (!__vmm_map_alloc(pid, pd_offset, pt_offset, (uintptr_t)pa, dattr, false))
c0107678:	8b 45 10             	mov    0x10(%ebp),%eax
c010767b:	83 ec 08             	sub    $0x8,%esp
c010767e:	6a 00                	push   $0x0
c0107680:	ff 75 14             	push   0x14(%ebp)
c0107683:	50                   	push   %eax
c0107684:	ff 75 f0             	push   -0x10(%ebp)
c0107687:	ff 75 f4             	push   -0xc(%ebp)
c010768a:	ff 75 08             	push   0x8(%ebp)
c010768d:	e8 c0 fd ff ff       	call   c0107452 <__vmm_map_alloc>
c0107692:	83 c4 20             	add    $0x20,%esp
c0107695:	85 c0                	test   %eax,%eax
c0107697:	75 07                	jne    c01076a0 <vmm_map_page+0x120>
        return NULL;
c0107699:	b8 00 00 00 00       	mov    $0x0,%eax
c010769e:	eb 1a                	jmp    c01076ba <vmm_map_page+0x13a>
    //     // add one on reference count, regardless of existence.
    //     pmm_ref_page(pid, pa);
    // }
    // pt[pt_offset] = PTE(tattr, pa);

    return (void*)V_ADDR(pd_offset, pt_offset, PG_OFFSET(va));
c01076a0:	8b 45 f4             	mov    -0xc(%ebp),%eax
c01076a3:	c1 e0 16             	shl    $0x16,%eax
c01076a6:	89 c2                	mov    %eax,%edx
c01076a8:	8b 45 f0             	mov    -0x10(%ebp),%eax
c01076ab:	c1 e0 0c             	shl    $0xc,%eax
c01076ae:	09 c2                	or     %eax,%edx
c01076b0:	8b 45 0c             	mov    0xc(%ebp),%eax
c01076b3:	25 ff 0f 00 00       	and    $0xfff,%eax
c01076b8:	09 d0                	or     %edx,%eax
}
c01076ba:	c9                   	leave  
c01076bb:	c3                   	ret    

c01076bc <vmm_cover_map_page>:

void* vmm_cover_map_page(pid_t pid, void* va, void* pa, pt_attr dattr, pt_attr tattr)
{
c01076bc:	55                   	push   %ebp
c01076bd:	89 e5                	mov    %esp,%ebp
c01076bf:	83 ec 18             	sub    $0x18,%esp
        // 显然，对空指针进行映射没有意义。
    if (!pa || !va) {
c01076c2:	83 7d 10 00          	cmpl   $0x0,0x10(%ebp)
c01076c6:	74 06                	je     c01076ce <vmm_cover_map_page+0x12>
c01076c8:	83 7d 0c 00          	cmpl   $0x0,0xc(%ebp)
c01076cc:	75 07                	jne    c01076d5 <vmm_cover_map_page+0x19>
        return NULL;
c01076ce:	b8 00 00 00 00       	mov    $0x0,%eax
c01076d3:	eb 50                	jmp    c0107725 <vmm_cover_map_page+0x69>
    }

    uintptr_t pd_offset = PD_INDEX(va);
c01076d5:	8b 45 0c             	mov    0xc(%ebp),%eax
c01076d8:	c1 e8 16             	shr    $0x16,%eax
c01076db:	89 45 f4             	mov    %eax,-0xc(%ebp)
    uintptr_t pt_offset = PT_INDEX(va);
c01076de:	8b 45 0c             	mov    0xc(%ebp),%eax
c01076e1:	c1 e8 0c             	shr    $0xc,%eax
c01076e4:	25 ff 03 00 00       	and    $0x3ff,%eax
c01076e9:	89 45 f0             	mov    %eax,-0x10(%ebp)

    if(!__vmm_map_alloc(pid, pd_offset, pt_offset, (uintptr_t)pa, dattr, true)) return NULL;
c01076ec:	8b 45 10             	mov    0x10(%ebp),%eax
c01076ef:	83 ec 08             	sub    $0x8,%esp
c01076f2:	6a 01                	push   $0x1
c01076f4:	ff 75 14             	push   0x14(%ebp)
c01076f7:	50                   	push   %eax
c01076f8:	ff 75 f0             	push   -0x10(%ebp)
c01076fb:	ff 75 f4             	push   -0xc(%ebp)
c01076fe:	ff 75 08             	push   0x8(%ebp)
c0107701:	e8 4c fd ff ff       	call   c0107452 <__vmm_map_alloc>
c0107706:	83 c4 20             	add    $0x20,%esp
c0107709:	85 c0                	test   %eax,%eax
c010770b:	75 07                	jne    c0107714 <vmm_cover_map_page+0x58>
c010770d:	b8 00 00 00 00       	mov    $0x0,%eax
c0107712:	eb 11                	jmp    c0107725 <vmm_cover_map_page+0x69>
    //     // add one on reference count, regardless of existence.
    //     pmm_ref_page(pid, pa);
    // }
    // pt[pt_offset] = PTE(tattr, pa);

    cpu_invplg(va);
c0107714:	83 ec 0c             	sub    $0xc,%esp
c0107717:	ff 75 0c             	push   0xc(%ebp)
c010771a:	e8 94 fc ff ff       	call   c01073b3 <cpu_invplg>
c010771f:	83 c4 10             	add    $0x10,%esp

    return va;
c0107722:	8b 45 0c             	mov    0xc(%ebp),%eax
}
c0107725:	c9                   	leave  
c0107726:	c3                   	ret    

c0107727 <vmm_alloc_page>:

void* vmm_alloc_page(pid_t pid, void* vpn, void** pa, pt_attr dattr, pt_attr tattr)
{
c0107727:	55                   	push   %ebp
c0107728:	89 e5                	mov    %esp,%ebp
c010772a:	83 ec 18             	sub    $0x18,%esp
    void* pp = pmm_alloc_page(pid, tattr);
c010772d:	83 ec 08             	sub    $0x8,%esp
c0107730:	ff 75 18             	push   0x18(%ebp)
c0107733:	ff 75 08             	push   0x8(%ebp)
c0107736:	e8 30 f1 ff ff       	call   c010686b <pmm_alloc_page>
c010773b:	83 c4 10             	add    $0x10,%esp
c010773e:	89 45 f4             	mov    %eax,-0xc(%ebp)
    void* result = vmm_map_page(pid, vpn, pp, dattr, tattr);
c0107741:	83 ec 0c             	sub    $0xc,%esp
c0107744:	ff 75 18             	push   0x18(%ebp)
c0107747:	ff 75 14             	push   0x14(%ebp)
c010774a:	ff 75 f4             	push   -0xc(%ebp)
c010774d:	ff 75 0c             	push   0xc(%ebp)
c0107750:	ff 75 08             	push   0x8(%ebp)
c0107753:	e8 28 fe ff ff       	call   c0107580 <vmm_map_page>
c0107758:	83 c4 20             	add    $0x20,%esp
c010775b:	89 45 f0             	mov    %eax,-0x10(%ebp)
    if (!result) {
c010775e:	83 7d f0 00          	cmpl   $0x0,-0x10(%ebp)
c0107762:	75 11                	jne    c0107775 <vmm_alloc_page+0x4e>
        pmm_free_page(pid, pp);
c0107764:	83 ec 08             	sub    $0x8,%esp
c0107767:	ff 75 f4             	push   -0xc(%ebp)
c010776a:	ff 75 08             	push   0x8(%ebp)
c010776d:	e8 40 f2 ff ff       	call   c01069b2 <pmm_free_page>
c0107772:	83 c4 10             	add    $0x10,%esp
    }
    pa ? (*pa = pp) : 0;
c0107775:	83 7d 10 00          	cmpl   $0x0,0x10(%ebp)
c0107779:	74 08                	je     c0107783 <vmm_alloc_page+0x5c>
c010777b:	8b 45 10             	mov    0x10(%ebp),%eax
c010777e:	8b 55 f4             	mov    -0xc(%ebp),%edx
c0107781:	89 10                	mov    %edx,(%eax)
    return result;
c0107783:	8b 45 f0             	mov    -0x10(%ebp),%eax
}
c0107786:	c9                   	leave  
c0107787:	c3                   	ret    

c0107788 <vmm_alloc_pages>:

int vmm_alloc_pages(pid_t pid, void* va, size_t sz, pt_attr tattr, pp_attr_t pattr)
{
c0107788:	55                   	push   %ebp
c0107789:	89 e5                	mov    %esp,%ebp
c010778b:	83 ec 28             	sub    $0x28,%esp
    //assert((uintptr_t)va % PG_SIZE == 0) assert(sz % PG_SIZE == 0);

    void* va_ = va;
c010778e:	8b 45 0c             	mov    0xc(%ebp),%eax
c0107791:	89 45 f4             	mov    %eax,-0xc(%ebp)
    for (size_t i = 0; i < (sz >> PG_SIZE_BITS); i++, va_ += PG_SIZE) {
c0107794:	c7 45 f0 00 00 00 00 	movl   $0x0,-0x10(%ebp)
c010779b:	e9 97 00 00 00       	jmp    c0107837 <vmm_alloc_pages+0xaf>
        void* pp = pmm_alloc_page(pid, pattr);
c01077a0:	83 ec 08             	sub    $0x8,%esp
c01077a3:	ff 75 18             	push   0x18(%ebp)
c01077a6:	ff 75 08             	push   0x8(%ebp)
c01077a9:	e8 bd f0 ff ff       	call   c010686b <pmm_alloc_page>
c01077ae:	83 c4 10             	add    $0x10,%esp
c01077b1:	89 45 e8             	mov    %eax,-0x18(%ebp)
        uint32_t l1_index = PD_INDEX(va_);
c01077b4:	8b 45 f4             	mov    -0xc(%ebp),%eax
c01077b7:	c1 e8 16             	shr    $0x16,%eax
c01077ba:	89 45 e4             	mov    %eax,-0x1c(%ebp)
        uint32_t l2_index = PT_INDEX(va_);
c01077bd:	8b 45 f4             	mov    -0xc(%ebp),%eax
c01077c0:	c1 e8 0c             	shr    $0xc,%eax
c01077c3:	25 ff 03 00 00       	and    $0x3ff,%eax
c01077c8:	89 45 e0             	mov    %eax,-0x20(%ebp)
        if (!pp || !__vmm_map_alloc(
c01077cb:	83 7d e8 00          	cmpl   $0x0,-0x18(%ebp)
c01077cf:	74 21                	je     c01077f2 <vmm_alloc_pages+0x6a>
c01077d1:	8b 45 e8             	mov    -0x18(%ebp),%eax
c01077d4:	83 ec 08             	sub    $0x8,%esp
c01077d7:	6a 00                	push   $0x0
c01077d9:	ff 75 14             	push   0x14(%ebp)
c01077dc:	50                   	push   %eax
c01077dd:	ff 75 e0             	push   -0x20(%ebp)
c01077e0:	ff 75 e4             	push   -0x1c(%ebp)
c01077e3:	ff 75 08             	push   0x8(%ebp)
c01077e6:	e8 67 fc ff ff       	call   c0107452 <__vmm_map_alloc>
c01077eb:	83 c4 20             	add    $0x20,%esp
c01077ee:	85 c0                	test   %eax,%eax
c01077f0:	75 3a                	jne    c010782c <vmm_alloc_pages+0xa4>
                     pid,
                     l1_index, l2_index, (uintptr_t)pp, tattr, false)) {
            // if one failed, release previous allocated pages.
            va_ = va;
c01077f2:	8b 45 0c             	mov    0xc(%ebp),%eax
c01077f5:	89 45 f4             	mov    %eax,-0xc(%ebp)
            for (size_t j = 0; j < i; j++, va_ += PG_SIZE) {
c01077f8:	c7 45 ec 00 00 00 00 	movl   $0x0,-0x14(%ebp)
c01077ff:	eb 1c                	jmp    c010781d <vmm_alloc_pages+0x95>
                vmm_unmap_page(pid, va_);
c0107801:	83 ec 08             	sub    $0x8,%esp
c0107804:	ff 75 f4             	push   -0xc(%ebp)
c0107807:	ff 75 08             	push   0x8(%ebp)
c010780a:	e8 41 01 00 00       	call   c0107950 <vmm_unmap_page>
c010780f:	83 c4 10             	add    $0x10,%esp
            for (size_t j = 0; j < i; j++, va_ += PG_SIZE) {
c0107812:	83 45 ec 01          	addl   $0x1,-0x14(%ebp)
c0107816:	81 45 f4 00 10 00 00 	addl   $0x1000,-0xc(%ebp)
c010781d:	8b 45 ec             	mov    -0x14(%ebp),%eax
c0107820:	3b 45 f0             	cmp    -0x10(%ebp),%eax
c0107823:	72 dc                	jb     c0107801 <vmm_alloc_pages+0x79>
            }

            return false;
c0107825:	b8 00 00 00 00       	mov    $0x0,%eax
c010782a:	eb 1f                	jmp    c010784b <vmm_alloc_pages+0xc3>
    for (size_t i = 0; i < (sz >> PG_SIZE_BITS); i++, va_ += PG_SIZE) {
c010782c:	83 45 f0 01          	addl   $0x1,-0x10(%ebp)
c0107830:	81 45 f4 00 10 00 00 	addl   $0x1000,-0xc(%ebp)
c0107837:	8b 45 10             	mov    0x10(%ebp),%eax
c010783a:	c1 e8 0c             	shr    $0xc,%eax
c010783d:	39 45 f0             	cmp    %eax,-0x10(%ebp)
c0107840:	0f 82 5a ff ff ff    	jb     c01077a0 <vmm_alloc_pages+0x18>
        }
    }

    return true;
c0107846:	b8 01 00 00 00       	mov    $0x1,%eax
}
c010784b:	c9                   	leave  
c010784c:	c3                   	ret    

c010784d <vmm_set_mapping>:

int vmm_set_mapping(pid_t pid, void* va, void* pa, pt_attr attr)
{
c010784d:	55                   	push   %ebp
c010784e:	89 e5                	mov    %esp,%ebp
c0107850:	83 ec 18             	sub    $0x18,%esp
    //assert(((uintptr_t)va & 0xFFFU) == 0);

    uint32_t l1_index = PD_INDEX(va);
c0107853:	8b 45 0c             	mov    0xc(%ebp),%eax
c0107856:	c1 e8 16             	shr    $0x16,%eax
c0107859:	89 45 f4             	mov    %eax,-0xc(%ebp)
    uint32_t l2_index = PT_INDEX(va);
c010785c:	8b 45 0c             	mov    0xc(%ebp),%eax
c010785f:	c1 e8 0c             	shr    $0xc,%eax
c0107862:	25 ff 03 00 00       	and    $0x3ff,%eax
c0107867:	89 45 f0             	mov    %eax,-0x10(%ebp)

    // prevent map of recursive mapping region
    if (l1_index == 1023) {
c010786a:	81 7d f4 ff 03 00 00 	cmpl   $0x3ff,-0xc(%ebp)
c0107871:	75 07                	jne    c010787a <vmm_set_mapping+0x2d>
        return 0;
c0107873:	b8 00 00 00 00       	mov    $0x0,%eax
c0107878:	eb 22                	jmp    c010789c <vmm_set_mapping+0x4f>
    }
    
    __vmm_map_alloc(pid, l1_index, l2_index, (uintptr_t)pa, attr, false);
c010787a:	8b 45 10             	mov    0x10(%ebp),%eax
c010787d:	83 ec 08             	sub    $0x8,%esp
c0107880:	6a 00                	push   $0x0
c0107882:	ff 75 14             	push   0x14(%ebp)
c0107885:	50                   	push   %eax
c0107886:	ff 75 f0             	push   -0x10(%ebp)
c0107889:	ff 75 f4             	push   -0xc(%ebp)
c010788c:	ff 75 08             	push   0x8(%ebp)
c010788f:	e8 be fb ff ff       	call   c0107452 <__vmm_map_alloc>
c0107894:	83 c4 20             	add    $0x20,%esp
    return 1;
c0107897:	b8 01 00 00 00       	mov    $0x1,%eax
}
c010789c:	c9                   	leave  
c010789d:	c3                   	ret    

c010789e <__vmm_unmap_unalloc>:

void __vmm_unmap_unalloc(pid_t pid, void* va, int free_ppage)
{
c010789e:	55                   	push   %ebp
c010789f:	89 e5                	mov    %esp,%ebp
c01078a1:	83 ec 28             	sub    $0x28,%esp
    //assert(((uintptr_t)va & 0xFFFU) == 0);

    uint32_t l1_index = PD_INDEX(va);
c01078a4:	8b 45 0c             	mov    0xc(%ebp),%eax
c01078a7:	c1 e8 16             	shr    $0x16,%eax
c01078aa:	89 45 f4             	mov    %eax,-0xc(%ebp)
    uint32_t l2_index = PT_INDEX(va);
c01078ad:	8b 45 0c             	mov    0xc(%ebp),%eax
c01078b0:	c1 e8 0c             	shr    $0xc,%eax
c01078b3:	25 ff 03 00 00       	and    $0x3ff,%eax
c01078b8:	89 45 f0             	mov    %eax,-0x10(%ebp)

    // prevent unmap of recursive mapping region
    if (l1_index == 1023) {
c01078bb:	81 7d f4 ff 03 00 00 	cmpl   $0x3ff,-0xc(%ebp)
c01078c2:	0f 84 85 00 00 00    	je     c010794d <__vmm_unmap_unalloc+0xaf>
        return;
    }

    ptd_t* ptd = (ptd_t*)PTD_BASE_VADDR;
c01078c8:	c7 45 ec 00 f0 ff ff 	movl   $0xfffff000,-0x14(%ebp)

    if (ptd[l1_index]) {
c01078cf:	8b 45 f4             	mov    -0xc(%ebp),%eax
c01078d2:	8d 14 85 00 00 00 00 	lea    0x0(,%eax,4),%edx
c01078d9:	8b 45 ec             	mov    -0x14(%ebp),%eax
c01078dc:	01 d0                	add    %edx,%eax
c01078de:	8b 00                	mov    (%eax),%eax
c01078e0:	85 c0                	test   %eax,%eax
c01078e2:	74 6a                	je     c010794e <__vmm_unmap_unalloc+0xb0>
        pt_t* pt = (uintptr_t)PT_VADDR(l1_index);
c01078e4:	8b 45 f4             	mov    -0xc(%ebp),%eax
c01078e7:	c1 e0 0c             	shl    $0xc,%eax
c01078ea:	0d 00 00 c0 ff       	or     $0xffc00000,%eax
c01078ef:	89 45 e8             	mov    %eax,-0x18(%ebp)
        pt_t pte = pt[l2_index];
c01078f2:	8b 45 f0             	mov    -0x10(%ebp),%eax
c01078f5:	8d 14 85 00 00 00 00 	lea    0x0(,%eax,4),%edx
c01078fc:	8b 45 e8             	mov    -0x18(%ebp),%eax
c01078ff:	01 d0                	add    %edx,%eax
c0107901:	8b 00                	mov    (%eax),%eax
c0107903:	89 45 e4             	mov    %eax,-0x1c(%ebp)
        if (IS_PRESENT(pte) && free_ppage) {
c0107906:	8b 45 e4             	mov    -0x1c(%ebp),%eax
c0107909:	83 e0 01             	and    $0x1,%eax
c010790c:	85 c0                	test   %eax,%eax
c010790e:	74 18                	je     c0107928 <__vmm_unmap_unalloc+0x8a>
c0107910:	83 7d 10 00          	cmpl   $0x0,0x10(%ebp)
c0107914:	74 12                	je     c0107928 <__vmm_unmap_unalloc+0x8a>
            pmm_free_page(pid, (void*)pte);
c0107916:	8b 45 e4             	mov    -0x1c(%ebp),%eax
c0107919:	83 ec 08             	sub    $0x8,%esp
c010791c:	50                   	push   %eax
c010791d:	ff 75 08             	push   0x8(%ebp)
c0107920:	e8 8d f0 ff ff       	call   c01069b2 <pmm_free_page>
c0107925:	83 c4 10             	add    $0x10,%esp
        }
        cpu_invplg(va);
c0107928:	83 ec 0c             	sub    $0xc,%esp
c010792b:	ff 75 0c             	push   0xc(%ebp)
c010792e:	e8 80 fa ff ff       	call   c01073b3 <cpu_invplg>
c0107933:	83 c4 10             	add    $0x10,%esp
        //kprintf("%d ", l2_index);
        pt[l2_index] = NULL;
c0107936:	8b 45 f0             	mov    -0x10(%ebp),%eax
c0107939:	8d 14 85 00 00 00 00 	lea    0x0(,%eax,4),%edx
c0107940:	8b 45 e8             	mov    -0x18(%ebp),%eax
c0107943:	01 d0                	add    %edx,%eax
c0107945:	c7 00 00 00 00 00    	movl   $0x0,(%eax)
c010794b:	eb 01                	jmp    c010794e <__vmm_unmap_unalloc+0xb0>
        return;
c010794d:	90                   	nop
    }
}
c010794e:	c9                   	leave  
c010794f:	c3                   	ret    

c0107950 <vmm_unmap_page>:

void vmm_unmap_page(pid_t pid, void* va)
{
c0107950:	55                   	push   %ebp
c0107951:	89 e5                	mov    %esp,%ebp
c0107953:	83 ec 08             	sub    $0x8,%esp
    __vmm_unmap_unalloc(pid, va, true);
c0107956:	83 ec 04             	sub    $0x4,%esp
c0107959:	6a 01                	push   $0x1
c010795b:	ff 75 0c             	push   0xc(%ebp)
c010795e:	ff 75 08             	push   0x8(%ebp)
c0107961:	e8 38 ff ff ff       	call   c010789e <__vmm_unmap_unalloc>
c0107966:	83 c4 10             	add    $0x10,%esp
}
c0107969:	90                   	nop
c010796a:	c9                   	leave  
c010796b:	c3                   	ret    

c010796c <vmm_unset_mapping>:

void vmm_unset_mapping(void* va)
{
c010796c:	55                   	push   %ebp
c010796d:	89 e5                	mov    %esp,%ebp
c010796f:	83 ec 08             	sub    $0x8,%esp
    __vmm_unmap_unalloc(0, va, false);
c0107972:	83 ec 04             	sub    $0x4,%esp
c0107975:	6a 00                	push   $0x0
c0107977:	ff 75 08             	push   0x8(%ebp)
c010797a:	6a 00                	push   $0x0
c010797c:	e8 1d ff ff ff       	call   c010789e <__vmm_unmap_unalloc>
c0107981:	83 c4 10             	add    $0x10,%esp
}
c0107984:	90                   	nop
c0107985:	c9                   	leave  
c0107986:	c3                   	ret    

c0107987 <vmm_lookup>:

v_mapping vmm_lookup(void* va)
{
c0107987:	55                   	push   %ebp
c0107988:	89 e5                	mov    %esp,%ebp
c010798a:	83 ec 28             	sub    $0x28,%esp
    assert(((uintptr_t)va & 0xFFFU) == 0);
c010798d:	8b 45 0c             	mov    0xc(%ebp),%eax
c0107990:	25 ff 0f 00 00       	and    $0xfff,%eax
c0107995:	85 c0                	test   %eax,%eax
c0107997:	74 1a                	je     c01079b3 <vmm_lookup+0x2c>
c0107999:	83 ec 04             	sub    $0x4,%esp
c010799c:	68 87 01 00 00       	push   $0x187
c01079a1:	68 87 e2 d0 c0       	push   $0xc0d0e287
c01079a6:	68 a0 e2 d0 c0       	push   $0xc0d0e2a0
c01079ab:	e8 69 1c 00 00       	call   c0109619 <__assert_fail>
c01079b0:	83 c4 10             	add    $0x10,%esp

    uint32_t l1_index = PD_INDEX(va);
c01079b3:	8b 45 0c             	mov    0xc(%ebp),%eax
c01079b6:	c1 e8 16             	shr    $0x16,%eax
c01079b9:	89 45 f4             	mov    %eax,-0xc(%ebp)
    uint32_t l2_index = PT_INDEX(va);
c01079bc:	8b 45 0c             	mov    0xc(%ebp),%eax
c01079bf:	c1 e8 0c             	shr    $0xc,%eax
c01079c2:	25 ff 03 00 00       	and    $0x3ff,%eax
c01079c7:	89 45 f0             	mov    %eax,-0x10(%ebp)

    ptd_t* ptd = (ptd_t*)PTD_BASE_VADDR;
c01079ca:	c7 45 ec 00 f0 ff ff 	movl   $0xfffff000,-0x14(%ebp)

    v_mapping mapping = { .flags = 0, .pa = 0, .pn = 0 };
c01079d1:	c7 45 d8 00 00 00 00 	movl   $0x0,-0x28(%ebp)
c01079d8:	c7 45 dc 00 00 00 00 	movl   $0x0,-0x24(%ebp)
c01079df:	c7 45 e0 00 00 00 00 	movl   $0x0,-0x20(%ebp)
c01079e6:	c7 45 e4 00 00 00 00 	movl   $0x0,-0x1c(%ebp)
    if (ptd[l1_index]) {
c01079ed:	8b 45 f4             	mov    -0xc(%ebp),%eax
c01079f0:	8d 14 85 00 00 00 00 	lea    0x0(,%eax,4),%edx
c01079f7:	8b 45 ec             	mov    -0x14(%ebp),%eax
c01079fa:	01 d0                	add    %edx,%eax
c01079fc:	8b 00                	mov    (%eax),%eax
c01079fe:	85 c0                	test   %eax,%eax
c0107a00:	74 49                	je     c0107a4b <vmm_lookup+0xc4>
        //pt_t* pt = (uintptr_t)PT_VADDR(l1_index);
        pt_t* l2pte = &(((pt_t*)PT_VADDR(l1_index))[l2_index]);
c0107a02:	8b 45 f0             	mov    -0x10(%ebp),%eax
c0107a05:	8d 14 85 00 00 00 00 	lea    0x0(,%eax,4),%edx
c0107a0c:	8b 45 f4             	mov    -0xc(%ebp),%eax
c0107a0f:	c1 e0 0c             	shl    $0xc,%eax
c0107a12:	0d 00 00 c0 ff       	or     $0xffc00000,%eax
c0107a17:	01 d0                	add    %edx,%eax
c0107a19:	89 45 e8             	mov    %eax,-0x18(%ebp)
        //pt_t* l2pte = &pt[l2_index];
        if (l2pte) {
c0107a1c:	83 7d e8 00          	cmpl   $0x0,-0x18(%ebp)
c0107a20:	74 29                	je     c0107a4b <vmm_lookup+0xc4>
            mapping.flags = PG_ENTRY_FLAGS(*l2pte);
c0107a22:	8b 45 e8             	mov    -0x18(%ebp),%eax
c0107a25:	8b 00                	mov    (%eax),%eax
c0107a27:	66 25 ff 0f          	and    $0xfff,%ax
c0107a2b:	66 89 45 e0          	mov    %ax,-0x20(%ebp)
            mapping.pa = PG_ENTRY_ADDR(*l2pte);
c0107a2f:	8b 45 e8             	mov    -0x18(%ebp),%eax
c0107a32:	8b 00                	mov    (%eax),%eax
c0107a34:	25 00 f0 ff ff       	and    $0xfffff000,%eax
c0107a39:	89 45 dc             	mov    %eax,-0x24(%ebp)
            mapping.pn = mapping.pa >> PG_SIZE_BITS;
c0107a3c:	8b 45 dc             	mov    -0x24(%ebp),%eax
c0107a3f:	c1 e8 0c             	shr    $0xc,%eax
c0107a42:	89 45 d8             	mov    %eax,-0x28(%ebp)
            mapping.pte = l2pte;
c0107a45:	8b 45 e8             	mov    -0x18(%ebp),%eax
c0107a48:	89 45 e4             	mov    %eax,-0x1c(%ebp)
        }
    }

    return mapping;
c0107a4b:	8b 45 08             	mov    0x8(%ebp),%eax
c0107a4e:	8b 55 d8             	mov    -0x28(%ebp),%edx
c0107a51:	89 10                	mov    %edx,(%eax)
c0107a53:	8b 55 dc             	mov    -0x24(%ebp),%edx
c0107a56:	89 50 04             	mov    %edx,0x4(%eax)
c0107a59:	8b 55 e0             	mov    -0x20(%ebp),%edx
c0107a5c:	89 50 08             	mov    %edx,0x8(%eax)
c0107a5f:	8b 55 e4             	mov    -0x1c(%ebp),%edx
c0107a62:	89 50 0c             	mov    %edx,0xc(%eax)
}
c0107a65:	8b 45 08             	mov    0x8(%ebp),%eax
c0107a68:	c9                   	leave  
c0107a69:	c2 04 00             	ret    $0x4

c0107a6c <vmm_v2p>:

void* vmm_v2p(void* va)
{
c0107a6c:	55                   	push   %ebp
c0107a6d:	89 e5                	mov    %esp,%ebp
c0107a6f:	83 ec 18             	sub    $0x18,%esp
    return (void*)vmm_lookup(va).pa;
c0107a72:	8d 45 e8             	lea    -0x18(%ebp),%eax
c0107a75:	83 ec 08             	sub    $0x8,%esp
c0107a78:	ff 75 08             	push   0x8(%ebp)
c0107a7b:	50                   	push   %eax
c0107a7c:	e8 06 ff ff ff       	call   c0107987 <vmm_lookup>
c0107a81:	83 c4 0c             	add    $0xc,%esp
c0107a84:	8b 45 ec             	mov    -0x14(%ebp),%eax
}
c0107a87:	c9                   	leave  
c0107a88:	c3                   	ret    

c0107a89 <vmm_dup_page>:

void* vmm_dup_page(pid_t pid, void* pa)
{
c0107a89:	55                   	push   %ebp
c0107a8a:	89 e5                	mov    %esp,%ebp
c0107a8c:	57                   	push   %edi
c0107a8d:	56                   	push   %esi
c0107a8e:	53                   	push   %ebx
c0107a8f:	83 ec 1c             	sub    $0x1c,%esp
    void* new_ppg = pmm_alloc_page(pid, 0);
c0107a92:	83 ec 08             	sub    $0x8,%esp
c0107a95:	6a 00                	push   $0x0
c0107a97:	ff 75 08             	push   0x8(%ebp)
c0107a9a:	e8 cc ed ff ff       	call   c010686b <pmm_alloc_page>
c0107a9f:	83 c4 10             	add    $0x10,%esp
c0107aa2:	89 45 e4             	mov    %eax,-0x1c(%ebp)
    vmm_cover_map_page(pid, PG_MOUNT_3, new_ppg, PG_PREM_RW,PG_PREM_RW);
c0107aa5:	83 ec 0c             	sub    $0xc,%esp
c0107aa8:	6a 03                	push   $0x3
c0107aaa:	6a 03                	push   $0x3
c0107aac:	ff 75 e4             	push   -0x1c(%ebp)
c0107aaf:	68 00 d0 7f af       	push   $0xaf7fd000
c0107ab4:	ff 75 08             	push   0x8(%ebp)
c0107ab7:	e8 00 fc ff ff       	call   c01076bc <vmm_cover_map_page>
c0107abc:	83 c4 20             	add    $0x20,%esp
    vmm_cover_map_page(pid, PG_MOUNT_4, pa, PG_PREM_RW,PG_PREM_RW);
c0107abf:	83 ec 0c             	sub    $0xc,%esp
c0107ac2:	6a 03                	push   $0x3
c0107ac4:	6a 03                	push   $0x3
c0107ac6:	ff 75 0c             	push   0xc(%ebp)
c0107ac9:	68 00 c0 7f af       	push   $0xaf7fc000
c0107ace:	ff 75 08             	push   0x8(%ebp)
c0107ad1:	e8 e6 fb ff ff       	call   c01076bc <vmm_cover_map_page>
c0107ad6:	83 c4 20             	add    $0x20,%esp

    asm volatile (
c0107ad9:	b8 00 04 00 00       	mov    $0x400,%eax
c0107ade:	ba 00 d0 7f af       	mov    $0xaf7fd000,%edx
c0107ae3:	bb 00 c0 7f af       	mov    $0xaf7fc000,%ebx
c0107ae8:	89 c1                	mov    %eax,%ecx
c0107aea:	89 d7                	mov    %edx,%edi
c0107aec:	89 de                	mov    %ebx,%esi
c0107aee:	f3 a5                	rep movsl %ds:(%esi),%es:(%edi)
        "movl %2, %%esi\n"
        "rep movsl\n"
        :: "c"(1024), "r"(PG_MOUNT_3), "r"(PG_MOUNT_4)
        : "memory", "%edi", "%esi");

    vmm_unset_mapping(PG_MOUNT_3);
c0107af0:	83 ec 0c             	sub    $0xc,%esp
c0107af3:	68 00 d0 7f af       	push   $0xaf7fd000
c0107af8:	e8 6f fe ff ff       	call   c010796c <vmm_unset_mapping>
c0107afd:	83 c4 10             	add    $0x10,%esp
    vmm_unset_mapping(PG_MOUNT_4);
c0107b00:	83 ec 0c             	sub    $0xc,%esp
c0107b03:	68 00 c0 7f af       	push   $0xaf7fc000
c0107b08:	e8 5f fe ff ff       	call   c010796c <vmm_unset_mapping>
c0107b0d:	83 c4 10             	add    $0x10,%esp

    return new_ppg;
c0107b10:	8b 45 e4             	mov    -0x1c(%ebp),%eax
}
c0107b13:	8d 65 f4             	lea    -0xc(%ebp),%esp
c0107b16:	5b                   	pop    %ebx
c0107b17:	5e                   	pop    %esi
c0107b18:	5f                   	pop    %edi
c0107b19:	5d                   	pop    %ebp
c0107b1a:	c3                   	ret    

c0107b1b <vmm_mount_pd>:

void* vmm_mount_pd(uintptr_t mnt, void* pde)
{
c0107b1b:	55                   	push   %ebp
c0107b1c:	89 e5                	mov    %esp,%ebp
c0107b1e:	83 ec 10             	sub    $0x10,%esp
    ptd_t* l1pt = (ptd_t*)PTD_BASE_VADDR;
c0107b21:	c7 45 fc 00 f0 ff ff 	movl   $0xfffff000,-0x4(%ebp)
    l1pt[(mnt >> 22)] = PDE(T_SELF_REF_PERM, pde);
c0107b28:	8b 45 0c             	mov    0xc(%ebp),%eax
c0107b2b:	25 00 f0 ff ff       	and    $0xfffff000,%eax
c0107b30:	89 c2                	mov    %eax,%edx
c0107b32:	8b 45 08             	mov    0x8(%ebp),%eax
c0107b35:	c1 e8 16             	shr    $0x16,%eax
c0107b38:	8d 0c 85 00 00 00 00 	lea    0x0(,%eax,4),%ecx
c0107b3f:	8b 45 fc             	mov    -0x4(%ebp),%eax
c0107b42:	01 c8                	add    %ecx,%eax
c0107b44:	83 ca 1b             	or     $0x1b,%edx
c0107b47:	89 10                	mov    %edx,(%eax)
    cpu_invplg(mnt);
c0107b49:	8b 45 08             	mov    0x8(%ebp),%eax
c0107b4c:	50                   	push   %eax
c0107b4d:	e8 61 f8 ff ff       	call   c01073b3 <cpu_invplg>
c0107b52:	83 c4 04             	add    $0x4,%esp
    return mnt;
c0107b55:	8b 45 08             	mov    0x8(%ebp),%eax
}
c0107b58:	c9                   	leave  
c0107b59:	c3                   	ret    

c0107b5a <vmm_unmount_pd>:

void* vmm_unmount_pd(uintptr_t mnt)
{
c0107b5a:	55                   	push   %ebp
c0107b5b:	89 e5                	mov    %esp,%ebp
c0107b5d:	83 ec 10             	sub    $0x10,%esp
    ptd_t* l1pt = (ptd_t*)PTD_BASE_VADDR;
c0107b60:	c7 45 fc 00 f0 ff ff 	movl   $0xfffff000,-0x4(%ebp)
    l1pt[(mnt >> 22)] = 0;
c0107b67:	8b 45 08             	mov    0x8(%ebp),%eax
c0107b6a:	c1 e8 16             	shr    $0x16,%eax
c0107b6d:	8d 14 85 00 00 00 00 	lea    0x0(,%eax,4),%edx
c0107b74:	8b 45 fc             	mov    -0x4(%ebp),%eax
c0107b77:	01 d0                	add    %edx,%eax
c0107b79:	c7 00 00 00 00 00    	movl   $0x0,(%eax)
    cpu_invplg(mnt);
c0107b7f:	8b 45 08             	mov    0x8(%ebp),%eax
c0107b82:	50                   	push   %eax
c0107b83:	e8 2b f8 ff ff       	call   c01073b3 <cpu_invplg>
c0107b88:	83 c4 04             	add    $0x4,%esp
}
c0107b8b:	90                   	nop
c0107b8c:	c9                   	leave  
c0107b8d:	c3                   	ret    

c0107b8e <io_inb>:

#include <stdint.h>

static inline uint8_t
io_inb(int port)
{
c0107b8e:	55                   	push   %ebp
c0107b8f:	89 e5                	mov    %esp,%ebp
c0107b91:	83 ec 10             	sub    $0x10,%esp
    uint8_t data;
    asm volatile("inb %w1,%0" : "=a"(data) : "d"(port));
c0107b94:	8b 45 08             	mov    0x8(%ebp),%eax
c0107b97:	89 c2                	mov    %eax,%edx
c0107b99:	ec                   	in     (%dx),%al
c0107b9a:	88 45 ff             	mov    %al,-0x1(%ebp)
    return data;
c0107b9d:	0f b6 45 ff          	movzbl -0x1(%ebp),%eax
}
c0107ba1:	c9                   	leave  
c0107ba2:	c3                   	ret    

c0107ba3 <io_outb>:
                 : "memory", "cc");
}

static inline void
io_outb(int port, uint8_t data)
{
c0107ba3:	55                   	push   %ebp
c0107ba4:	89 e5                	mov    %esp,%ebp
c0107ba6:	83 ec 04             	sub    $0x4,%esp
c0107ba9:	8b 45 0c             	mov    0xc(%ebp),%eax
c0107bac:	88 45 fc             	mov    %al,-0x4(%ebp)
    asm volatile("outb %0, %w1" : : "a"(data), "d"(port));
c0107baf:	0f b6 45 fc          	movzbl -0x4(%ebp),%eax
c0107bb3:	8b 55 08             	mov    0x8(%ebp),%edx
c0107bb6:	ee                   	out    %al,(%dx)
}
c0107bb7:	90                   	nop
c0107bb8:	c9                   	leave  
c0107bb9:	c3                   	ret    

c0107bba <frequence_set>:
uint32_t sched_ticks;
void do_intr_time_handler(isr_param int_param);

static void frequence_set(uint8_t counter_port, uint8_t counter_no, 
                         uint8_t rwl, uint8_t counter_mode, uint16_t counter_value)
{
c0107bba:	55                   	push   %ebp
c0107bbb:	89 e5                	mov    %esp,%ebp
c0107bbd:	57                   	push   %edi
c0107bbe:	56                   	push   %esi
c0107bbf:	53                   	push   %ebx
c0107bc0:	83 ec 14             	sub    $0x14,%esp
c0107bc3:	8b 75 08             	mov    0x8(%ebp),%esi
c0107bc6:	8b 5d 0c             	mov    0xc(%ebp),%ebx
c0107bc9:	8b 4d 10             	mov    0x10(%ebp),%ecx
c0107bcc:	8b 55 14             	mov    0x14(%ebp),%edx
c0107bcf:	8b 7d 18             	mov    0x18(%ebp),%edi
c0107bd2:	89 f0                	mov    %esi,%eax
c0107bd4:	88 45 f0             	mov    %al,-0x10(%ebp)
c0107bd7:	88 5d ec             	mov    %bl,-0x14(%ebp)
c0107bda:	88 4d e8             	mov    %cl,-0x18(%ebp)
c0107bdd:	88 55 e4             	mov    %dl,-0x1c(%ebp)
c0107be0:	89 f8                	mov    %edi,%eax
c0107be2:	66 89 45 e0          	mov    %ax,-0x20(%ebp)
    io_outb(PIT_CONTROL_PORT, (uint8_t)(counter_no << 6 | rwl << 4 | counter_mode << 1));
c0107be6:	0f b6 45 ec          	movzbl -0x14(%ebp),%eax
c0107bea:	c1 e0 06             	shl    $0x6,%eax
c0107bed:	89 c2                	mov    %eax,%edx
c0107bef:	0f b6 45 e8          	movzbl -0x18(%ebp),%eax
c0107bf3:	c1 e0 04             	shl    $0x4,%eax
c0107bf6:	09 c2                	or     %eax,%edx
c0107bf8:	0f b6 45 e4          	movzbl -0x1c(%ebp),%eax
c0107bfc:	01 c0                	add    %eax,%eax
c0107bfe:	09 d0                	or     %edx,%eax
c0107c00:	0f b6 c0             	movzbl %al,%eax
c0107c03:	50                   	push   %eax
c0107c04:	6a 43                	push   $0x43
c0107c06:	e8 98 ff ff ff       	call   c0107ba3 <io_outb>
c0107c0b:	83 c4 08             	add    $0x8,%esp
    io_outb(counter_port, (uint8_t)counter_value);
c0107c0e:	0f b7 45 e0          	movzwl -0x20(%ebp),%eax
c0107c12:	0f b6 d0             	movzbl %al,%edx
c0107c15:	0f b6 45 f0          	movzbl -0x10(%ebp),%eax
c0107c19:	52                   	push   %edx
c0107c1a:	50                   	push   %eax
c0107c1b:	e8 83 ff ff ff       	call   c0107ba3 <io_outb>
c0107c20:	83 c4 08             	add    $0x8,%esp
    io_outb(counter_port, (uint8_t)(counter_value >> 8));
c0107c23:	0f b7 45 e0          	movzwl -0x20(%ebp),%eax
c0107c27:	66 c1 e8 08          	shr    $0x8,%ax
c0107c2b:	0f b6 d0             	movzbl %al,%edx
c0107c2e:	0f b6 45 f0          	movzbl -0x10(%ebp),%eax
c0107c32:	52                   	push   %edx
c0107c33:	50                   	push   %eax
c0107c34:	e8 6a ff ff ff       	call   c0107ba3 <io_outb>
c0107c39:	83 c4 08             	add    $0x8,%esp
}
c0107c3c:	90                   	nop
c0107c3d:	8d 65 f4             	lea    -0xc(%ebp),%esp
c0107c40:	5b                   	pop    %ebx
c0107c41:	5e                   	pop    %esi
c0107c42:	5f                   	pop    %edi
c0107c43:	5d                   	pop    %ebp
c0107c44:	c3                   	ret    

c0107c45 <timer_init>:

void timer_init(){
c0107c45:	55                   	push   %ebp
c0107c46:	89 e5                	mov    %esp,%ebp
c0107c48:	83 ec 18             	sub    $0x18,%esp
    ticks = 0;
c0107c4b:	c7 05 f0 b0 d0 c0 00 	movl   $0x0,0xc0d0b0f0
c0107c52:	00 00 00 
    sched_ticks = 10;
c0107c55:	c7 05 f4 b0 d0 c0 0a 	movl   $0xa,0xc0d0b0f4
c0107c5c:	00 00 00 
    //kprintf("timer intr start\n");
    frequence_set(CURRENTR0_PORT, CURRENTR0_NO, READ_WRITE_LATCH, CURRENTR_MODE, CURRENTR0_VALUE);
c0107c5f:	68 9b 2e 00 00       	push   $0x2e9b
c0107c64:	6a 02                	push   $0x2
c0107c66:	6a 03                	push   $0x3
c0107c68:	6a 00                	push   $0x0
c0107c6a:	6a 40                	push   $0x40
c0107c6c:	e8 49 ff ff ff       	call   c0107bba <frequence_set>
c0107c71:	83 c4 14             	add    $0x14,%esp
    _set_idt_entry(HARDWARE_TIME_INT, 0x08, &intr_time_handler, 0);
c0107c74:	6a 00                	push   $0x0
c0107c76:	68 b9 81 10 c0       	push   $0xc01081b9
c0107c7b:	6a 08                	push   $0x8
c0107c7d:	6a 20                	push   $0x20
c0107c7f:	e8 b6 10 00 00       	call   c0108d3a <_set_idt_entry>
c0107c84:	83 c4 10             	add    $0x10,%esp
    intr_subscribe(HARDWARE_TIME_INT, do_intr_time_handler);
c0107c87:	83 ec 08             	sub    $0x8,%esp
c0107c8a:	68 d4 7c 10 c0       	push   $0xc0107cd4
c0107c8f:	6a 20                	push   $0x20
c0107c91:	e8 ee 01 00 00       	call   c0107e84 <intr_subscribe>
c0107c96:	83 c4 10             	add    $0x10,%esp
    uint8_t result = io_inb(0x21);
c0107c99:	83 ec 0c             	sub    $0xc,%esp
c0107c9c:	6a 21                	push   $0x21
c0107c9e:	e8 eb fe ff ff       	call   c0107b8e <io_inb>
c0107ca3:	83 c4 10             	add    $0x10,%esp
c0107ca6:	88 45 f7             	mov    %al,-0x9(%ebp)
    io_outb(0x21, result & 0xfe);
c0107ca9:	0f b6 45 f7          	movzbl -0x9(%ebp),%eax
c0107cad:	25 fe 00 00 00       	and    $0xfe,%eax
c0107cb2:	83 ec 08             	sub    $0x8,%esp
c0107cb5:	50                   	push   %eax
c0107cb6:	6a 21                	push   $0x21
c0107cb8:	e8 e6 fe ff ff       	call   c0107ba3 <io_outb>
c0107cbd:	83 c4 10             	add    $0x10,%esp
    kprintf("timer init down\n");
c0107cc0:	83 ec 0c             	sub    $0xc,%esp
c0107cc3:	68 be e2 d0 c0       	push   $0xc0d0e2be
c0107cc8:	e8 f3 24 00 00       	call   c010a1c0 <kprintf>
c0107ccd:	83 c4 10             	add    $0x10,%esp
    asm("sti");
c0107cd0:	fb                   	sti    
}
c0107cd1:	90                   	nop
c0107cd2:	c9                   	leave  
c0107cd3:	c3                   	ret    

c0107cd4 <do_intr_time_handler>:

void do_intr_time_handler(isr_param int_param)
{
c0107cd4:	55                   	push   %ebp
c0107cd5:	89 e5                	mov    %esp,%ebp
c0107cd7:	83 ec 08             	sub    $0x8,%esp
    ticks++;
c0107cda:	a1 f0 b0 d0 c0       	mov    0xc0d0b0f0,%eax
c0107cdf:	83 c0 01             	add    $0x1,%eax
c0107ce2:	a3 f0 b0 d0 c0       	mov    %eax,0xc0d0b0f0
    //__current->intr_contxt = int_param;
    if(sched_ticks == 0)
c0107ce7:	a1 f4 b0 d0 c0       	mov    0xc0d0b0f4,%eax
c0107cec:	85 c0                	test   %eax,%eax
c0107cee:	75 11                	jne    c0107d01 <do_intr_time_handler+0x2d>
    {
        sched_ticks = 10;
c0107cf0:	c7 05 f4 b0 d0 c0 0a 	movl   $0xa,0xc0d0b0f4
c0107cf7:	00 00 00 
        schedule();
c0107cfa:	e8 14 21 00 00       	call   c0109e13 <schedule>
    }
    else
        sched_ticks--;
c0107cff:	eb 0d                	jmp    c0107d0e <do_intr_time_handler+0x3a>
        sched_ticks--;
c0107d01:	a1 f4 b0 d0 c0       	mov    0xc0d0b0f4,%eax
c0107d06:	83 e8 01             	sub    $0x1,%eax
c0107d09:	a3 f4 b0 d0 c0       	mov    %eax,0xc0d0b0f4
c0107d0e:	90                   	nop
c0107d0f:	c9                   	leave  
c0107d10:	c3                   	ret    

c0107d11 <syscall>:
void
syscall_install();

static void*
syscall(unsigned int callcode)
{
c0107d11:	55                   	push   %ebp
c0107d12:	89 e5                	mov    %esp,%ebp
c0107d14:	57                   	push   %edi
    asm volatile("int %0" ::"i"(0x80), "D"(callcode) : "eax");
c0107d15:	8b 55 08             	mov    0x8(%ebp),%edx
c0107d18:	89 d7                	mov    %edx,%edi
c0107d1a:	cd 80                	int    $0x80
}
c0107d1c:	90                   	nop
c0107d1d:	8b 7d fc             	mov    -0x4(%ebp),%edi
c0107d20:	c9                   	leave  
c0107d21:	c3                   	ret    

c0107d22 <fork>:
#include <syscall/syscall.h>
#include <stdint.h>

typedef int32_t pid_t;

__MXSYSCALL(pid_t, fork)
c0107d22:	55                   	push   %ebp
c0107d23:	89 e5                	mov    %esp,%ebp
c0107d25:	83 ec 10             	sub    $0x10,%esp
c0107d28:	b8 01 00 00 00       	mov    $0x1,%eax
c0107d2d:	cd 80                	int    $0x80
c0107d2f:	89 45 fc             	mov    %eax,-0x4(%ebp)
c0107d32:	8b 45 fc             	mov    -0x4(%ebp),%eax
c0107d35:	c9                   	leave  
c0107d36:	c3                   	ret    

c0107d37 <getpid>:

// __MXSYSCALL1(int, sbrk, void*, addr)

// __MXSYSCALL1(void*, brk, unsigned long, size)

__MXSYSCALL(pid_t, getpid)
c0107d37:	55                   	push   %ebp
c0107d38:	89 e5                	mov    %esp,%ebp
c0107d3a:	83 ec 10             	sub    $0x10,%esp
c0107d3d:	b8 02 00 00 00       	mov    $0x2,%eax
c0107d42:	cd 80                	int    $0x80
c0107d44:	89 45 fc             	mov    %eax,-0x4(%ebp)
c0107d47:	8b 45 fc             	mov    -0x4(%ebp),%eax
c0107d4a:	c9                   	leave  
c0107d4b:	c3                   	ret    

c0107d4c <getppid>:

__MXSYSCALL(pid_t, getppid)
c0107d4c:	55                   	push   %ebp
c0107d4d:	89 e5                	mov    %esp,%ebp
c0107d4f:	83 ec 10             	sub    $0x10,%esp
c0107d52:	b8 03 00 00 00       	mov    $0x3,%eax
c0107d57:	cd 80                	int    $0x80
c0107d59:	89 45 fc             	mov    %eax,-0x4(%ebp)
c0107d5c:	8b 45 fc             	mov    -0x4(%ebp),%eax
c0107d5f:	c9                   	leave  
c0107d60:	c3                   	ret    

c0107d61 <_exit>:

__MXSYSCALL1(void, _exit, int, status)
c0107d61:	55                   	push   %ebp
c0107d62:	89 e5                	mov    %esp,%ebp
c0107d64:	53                   	push   %ebx
c0107d65:	83 ec 10             	sub    $0x10,%esp
c0107d68:	8b 45 08             	mov    0x8(%ebp),%eax
c0107d6b:	89 c3                	mov    %eax,%ebx
c0107d6d:	b8 04 00 00 00       	mov    $0x4,%eax
c0107d72:	cd 80                	int    $0x80
c0107d74:	89 45 f8             	mov    %eax,-0x8(%ebp)
c0107d77:	90                   	nop
c0107d78:	8b 5d fc             	mov    -0x4(%ebp),%ebx
c0107d7b:	c9                   	leave  
c0107d7c:	c3                   	ret    

c0107d7d <__proc0>:
#include <kernel/cpu/pci.h>
extern void __init_phykernel_end;
void init_platform();
extern void _mxinit_main(); /* mxinit.c */
void __proc0()
{
c0107d7d:	55                   	push   %ebp
c0107d7e:	89 e5                	mov    %esp,%ebp
c0107d80:	83 ec 08             	sub    $0x8,%esp
    init_platform();
c0107d83:	e8 23 00 00 00       	call   c0107dab <init_platform>
    //kprintf("This is proc0!\n");
    if (!fork()) {
c0107d88:	e8 95 ff ff ff       	call   c0107d22 <fork>
c0107d8d:	85 c0                	test   %eax,%eax
c0107d8f:	75 05                	jne    c0107d96 <__proc0+0x19>
        //schedule();
        //kprintf("fork sucess!\n");
        asm("jmp _mxinit_main");
c0107d91:	e9 9e 00 00 00       	jmp    c0107e34 <_mxinit_main>
    }
    kprintf("proc 0");
c0107d96:	83 ec 0c             	sub    $0xc,%esp
c0107d99:	68 cf e2 d0 c0       	push   $0xc0d0e2cf
c0107d9e:	e8 1d 24 00 00       	call   c010a1c0 <kprintf>
c0107da3:	83 c4 10             	add    $0x10,%esp
    //io_outb(0x20, 0x20);
    //io_outb(0xa0, 0x20);//EOI end the int
    asm("1: jmp 1b");
c0107da6:	eb fe                	jmp    c0107da6 <__proc0+0x29>
}
c0107da8:	90                   	nop
c0107da9:	c9                   	leave  
c0107daa:	c3                   	ret    

c0107dab <init_platform>:

void init_platform()
{
c0107dab:	55                   	push   %ebp
c0107dac:	89 e5                	mov    %esp,%ebp
c0107dae:	83 ec 08             	sub    $0x8,%esp
    //size_t virk_init_pg_count = ((uintptr_t)(&__init_phykernel_end)) >> 12;
    //init malloc
    mem_init();
c0107db1:	e8 1e f0 ff ff       	call   c0106dd4 <mem_init>
    init_keyboard();
c0107db6:	e8 06 15 00 00       	call   c01092c1 <init_keyboard>
    timer_init();
c0107dbb:	e8 85 fe ff ff       	call   c0107c45 <timer_init>
    //pci_init();
    //pci_print_device();
    syscall_install();
c0107dc0:	e8 fa 17 00 00       	call   c01095bf <syscall_install>
    // for (size_t i = 0; i < virk_init_pg_count; i++) {

    //     vmm_unmap_page(KERNEL_PID, (i << 12));
    // }
    // kprintf("[MM] Releaseing %d pages from 0x0.\n", virk_init_pg_count);
c0107dc5:	90                   	nop
c0107dc6:	c9                   	leave  
c0107dc7:	c3                   	ret    

c0107dc8 <syscall>:
{
c0107dc8:	55                   	push   %ebp
c0107dc9:	89 e5                	mov    %esp,%ebp
c0107dcb:	57                   	push   %edi
    asm volatile("int %0" ::"i"(0x80), "D"(callcode) : "eax");
c0107dcc:	8b 55 08             	mov    0x8(%ebp),%edx
c0107dcf:	89 d7                	mov    %edx,%edi
c0107dd1:	cd 80                	int    $0x80
}
c0107dd3:	90                   	nop
c0107dd4:	8b 7d fc             	mov    -0x4(%ebp),%edi
c0107dd7:	c9                   	leave  
c0107dd8:	c3                   	ret    

c0107dd9 <fork>:
__MXSYSCALL(pid_t, fork)
c0107dd9:	55                   	push   %ebp
c0107dda:	89 e5                	mov    %esp,%ebp
c0107ddc:	83 ec 10             	sub    $0x10,%esp
c0107ddf:	b8 01 00 00 00       	mov    $0x1,%eax
c0107de4:	cd 80                	int    $0x80
c0107de6:	89 45 fc             	mov    %eax,-0x4(%ebp)
c0107de9:	8b 45 fc             	mov    -0x4(%ebp),%eax
c0107dec:	c9                   	leave  
c0107ded:	c3                   	ret    

c0107dee <getpid>:
__MXSYSCALL(pid_t, getpid)
c0107dee:	55                   	push   %ebp
c0107def:	89 e5                	mov    %esp,%ebp
c0107df1:	83 ec 10             	sub    $0x10,%esp
c0107df4:	b8 02 00 00 00       	mov    $0x2,%eax
c0107df9:	cd 80                	int    $0x80
c0107dfb:	89 45 fc             	mov    %eax,-0x4(%ebp)
c0107dfe:	8b 45 fc             	mov    -0x4(%ebp),%eax
c0107e01:	c9                   	leave  
c0107e02:	c3                   	ret    

c0107e03 <getppid>:
__MXSYSCALL(pid_t, getppid)
c0107e03:	55                   	push   %ebp
c0107e04:	89 e5                	mov    %esp,%ebp
c0107e06:	83 ec 10             	sub    $0x10,%esp
c0107e09:	b8 03 00 00 00       	mov    $0x3,%eax
c0107e0e:	cd 80                	int    $0x80
c0107e10:	89 45 fc             	mov    %eax,-0x4(%ebp)
c0107e13:	8b 45 fc             	mov    -0x4(%ebp),%eax
c0107e16:	c9                   	leave  
c0107e17:	c3                   	ret    

c0107e18 <_exit>:
__MXSYSCALL1(void, _exit, int, status)
c0107e18:	55                   	push   %ebp
c0107e19:	89 e5                	mov    %esp,%ebp
c0107e1b:	53                   	push   %ebx
c0107e1c:	83 ec 10             	sub    $0x10,%esp
c0107e1f:	8b 45 08             	mov    0x8(%ebp),%eax
c0107e22:	89 c3                	mov    %eax,%ebx
c0107e24:	b8 04 00 00 00       	mov    $0x4,%eax
c0107e29:	cd 80                	int    $0x80
c0107e2b:	89 45 f8             	mov    %eax,-0x8(%ebp)
c0107e2e:	90                   	nop
c0107e2f:	8b 5d fc             	mov    -0x4(%ebp),%ebx
c0107e32:	c9                   	leave  
c0107e33:	c3                   	ret    

c0107e34 <_mxinit_main>:
#include <syscall/meloxstd.h>
#include <syscall/syscall.h>
#include <kernel/cpu/io.h>
//#define FORK_BOMB_DEMO
void _mxinit_main()
{
c0107e34:	55                   	push   %ebp
c0107e35:	89 e5                	mov    %esp,%ebp
c0107e37:	83 ec 08             	sub    $0x8,%esp
    //     }
    //     kprintf("Forked %d\n", pid);
    // }

    // char buf[64];
    kprintf("proc 1!");
c0107e3a:	83 ec 0c             	sub    $0xc,%esp
c0107e3d:	68 d6 e2 d0 c0       	push   $0xc0d0e2d6
c0107e42:	e8 79 23 00 00       	call   c010a1c0 <kprintf>
c0107e47:	83 c4 10             	add    $0x10,%esp
    //io_outb(0x20, 0x20);
    //io_outb(0xa0, 0x20);//EOI end the int
    while(1);
c0107e4a:	eb fe                	jmp    c0107e4a <_mxinit_main+0x16>

c0107e4c <io_outb>:
{
c0107e4c:	55                   	push   %ebp
c0107e4d:	89 e5                	mov    %esp,%ebp
c0107e4f:	83 ec 04             	sub    $0x4,%esp
c0107e52:	8b 45 0c             	mov    0xc(%ebp),%eax
c0107e55:	88 45 fc             	mov    %al,-0x4(%ebp)
    asm volatile("outb %0, %w1" : : "a"(data), "d"(port));
c0107e58:	0f b6 45 fc          	movzbl -0x4(%ebp),%eax
c0107e5c:	8b 55 08             	mov    0x8(%ebp),%edx
c0107e5f:	ee                   	out    %al,(%dx)
}
c0107e60:	90                   	nop
c0107e61:	c9                   	leave  
c0107e62:	c3                   	ret    

c0107e63 <pic_end_eoi>:

static inline void cpu_delay(){
    for(int i = 0; i < 3; i++);
}

static inline void pic_end_eoi(){
c0107e63:	55                   	push   %ebp
c0107e64:	89 e5                	mov    %esp,%ebp
    io_outb(0x20, 0x20);
c0107e66:	6a 20                	push   $0x20
c0107e68:	6a 20                	push   $0x20
c0107e6a:	e8 dd ff ff ff       	call   c0107e4c <io_outb>
c0107e6f:	83 c4 08             	add    $0x8,%esp
    io_outb(0xa0, 0x20);//EOI end the int
c0107e72:	6a 20                	push   $0x20
c0107e74:	68 a0 00 00 00       	push   $0xa0
c0107e79:	e8 ce ff ff ff       	call   c0107e4c <io_outb>
c0107e7e:	83 c4 08             	add    $0x8,%esp
}
c0107e81:	90                   	nop
c0107e82:	c9                   	leave  
c0107e83:	c3                   	ret    

c0107e84 <intr_subscribe>:
#include <kernel/process/peocess.h>
#include <kernel/cpu/io.h>

static int_subscriber subscribers[256];

void intr_subscribe(const uint8_t vector, int_subscriber subscriber) {
c0107e84:	55                   	push   %ebp
c0107e85:	89 e5                	mov    %esp,%ebp
c0107e87:	83 ec 04             	sub    $0x4,%esp
c0107e8a:	8b 45 08             	mov    0x8(%ebp),%eax
c0107e8d:	88 45 fc             	mov    %al,-0x4(%ebp)
    subscribers[vector] = subscriber;
c0107e90:	0f b6 45 fc          	movzbl -0x4(%ebp),%eax
c0107e94:	8b 55 0c             	mov    0xc(%ebp),%edx
c0107e97:	89 14 85 00 b1 d0 c0 	mov    %edx,-0x3f2f4f00(,%eax,4)
}
c0107e9e:	90                   	nop
c0107e9f:	c9                   	leave  
c0107ea0:	c3                   	ret    

c0107ea1 <intr_unsubscribe>:

void intr_unsubscribe(const uint8_t vector, int_subscriber subscriber) {
c0107ea1:	55                   	push   %ebp
c0107ea2:	89 e5                	mov    %esp,%ebp
c0107ea4:	83 ec 04             	sub    $0x4,%esp
c0107ea7:	8b 45 08             	mov    0x8(%ebp),%eax
c0107eaa:	88 45 fc             	mov    %al,-0x4(%ebp)
    if (subscribers[vector] == subscriber) {
c0107ead:	0f b6 45 fc          	movzbl -0x4(%ebp),%eax
c0107eb1:	8b 04 85 00 b1 d0 c0 	mov    -0x3f2f4f00(,%eax,4),%eax
c0107eb8:	39 45 0c             	cmp    %eax,0xc(%ebp)
c0107ebb:	75 0f                	jne    c0107ecc <intr_unsubscribe+0x2b>
        subscribers[vector] = (int_subscriber) 0;
c0107ebd:	0f b6 45 fc          	movzbl -0x4(%ebp),%eax
c0107ec1:	c7 04 85 00 b1 d0 c0 	movl   $0x0,-0x3f2f4f00(,%eax,4)
c0107ec8:	00 00 00 00 
    }
}
c0107ecc:	90                   	nop
c0107ecd:	c9                   	leave  
c0107ece:	c3                   	ret    

c0107ecf <intr_handler>:

void intr_handler(isr_param* param)
{
c0107ecf:	55                   	push   %ebp
c0107ed0:	89 e5                	mov    %esp,%ebp
c0107ed2:	53                   	push   %ebx
c0107ed3:	83 ec 14             	sub    $0x14,%esp
	__current->intr_contxt = *param;
c0107ed6:	a1 80 c1 d0 c0       	mov    0xc0d0c180,%eax
c0107edb:	8b 55 08             	mov    0x8(%ebp),%edx
c0107ede:	8b 0a                	mov    (%edx),%ecx
c0107ee0:	89 48 08             	mov    %ecx,0x8(%eax)
c0107ee3:	8b 4a 04             	mov    0x4(%edx),%ecx
c0107ee6:	89 48 0c             	mov    %ecx,0xc(%eax)
c0107ee9:	8b 4a 08             	mov    0x8(%edx),%ecx
c0107eec:	89 48 10             	mov    %ecx,0x10(%eax)
c0107eef:	8b 4a 0c             	mov    0xc(%edx),%ecx
c0107ef2:	89 48 14             	mov    %ecx,0x14(%eax)
c0107ef5:	8b 4a 10             	mov    0x10(%edx),%ecx
c0107ef8:	89 48 18             	mov    %ecx,0x18(%eax)
c0107efb:	8b 4a 14             	mov    0x14(%edx),%ecx
c0107efe:	89 48 1c             	mov    %ecx,0x1c(%eax)
c0107f01:	8b 4a 18             	mov    0x18(%edx),%ecx
c0107f04:	89 48 20             	mov    %ecx,0x20(%eax)
c0107f07:	8b 4a 1c             	mov    0x1c(%edx),%ecx
c0107f0a:	89 48 24             	mov    %ecx,0x24(%eax)
c0107f0d:	8b 4a 20             	mov    0x20(%edx),%ecx
c0107f10:	89 48 28             	mov    %ecx,0x28(%eax)
c0107f13:	8b 4a 24             	mov    0x24(%edx),%ecx
c0107f16:	89 48 2c             	mov    %ecx,0x2c(%eax)
c0107f19:	8b 4a 28             	mov    0x28(%edx),%ecx
c0107f1c:	89 48 30             	mov    %ecx,0x30(%eax)
c0107f1f:	8b 4a 2c             	mov    0x2c(%edx),%ecx
c0107f22:	89 48 34             	mov    %ecx,0x34(%eax)
c0107f25:	8b 4a 30             	mov    0x30(%edx),%ecx
c0107f28:	89 48 38             	mov    %ecx,0x38(%eax)
c0107f2b:	8b 4a 34             	mov    0x34(%edx),%ecx
c0107f2e:	89 48 3c             	mov    %ecx,0x3c(%eax)
c0107f31:	8b 52 38             	mov    0x38(%edx),%edx
c0107f34:	89 50 40             	mov    %edx,0x40(%eax)
    cpu_lcr3(__kernel_ptd);

    vmm_mount_pd(PD_MOUNT_1, __current->page_table);
#endif

    isr_param *lparam = &__current->intr_contxt;
c0107f37:	a1 80 c1 d0 c0       	mov    0xc0d0c180,%eax
c0107f3c:	83 c0 08             	add    $0x8,%eax
c0107f3f:	89 45 f4             	mov    %eax,-0xc(%ebp)
    
    if (lparam->vector <= 255) {
c0107f42:	8b 45 f4             	mov    -0xc(%ebp),%eax
c0107f45:	8b 40 20             	mov    0x20(%eax),%eax
c0107f48:	3d ff 00 00 00       	cmp    $0xff,%eax
c0107f4d:	77 26                	ja     c0107f75 <intr_handler+0xa6>
        int_subscriber subscriber = subscribers[lparam->vector];
c0107f4f:	8b 45 f4             	mov    -0xc(%ebp),%eax
c0107f52:	8b 40 20             	mov    0x20(%eax),%eax
c0107f55:	8b 04 85 00 b1 d0 c0 	mov    -0x3f2f4f00(,%eax,4),%eax
c0107f5c:	89 45 f0             	mov    %eax,-0x10(%ebp)
        if (subscriber) {
c0107f5f:	83 7d f0 00          	cmpl   $0x0,-0x10(%ebp)
c0107f63:	74 10                	je     c0107f75 <intr_handler+0xa6>
            subscriber(param);
c0107f65:	83 ec 0c             	sub    $0xc,%esp
c0107f68:	ff 75 08             	push   0x8(%ebp)
c0107f6b:	8b 45 f0             	mov    -0x10(%ebp),%eax
c0107f6e:	ff d0                	call   *%eax
c0107f70:	83 c4 10             	add    $0x10,%esp
            goto done;
c0107f73:	eb 2c                	jmp    c0107fa1 <intr_handler+0xd2>
    // if (fallback) {
    //     fallback(lparam);
    //     goto done;
    // }
    
    kprintf("INT %x: (%x) [%x: %x] Unknown",
c0107f75:	8b 45 f4             	mov    -0xc(%ebp),%eax
c0107f78:	8b 58 28             	mov    0x28(%eax),%ebx
c0107f7b:	8b 45 f4             	mov    -0xc(%ebp),%eax
c0107f7e:	8b 48 2c             	mov    0x2c(%eax),%ecx
c0107f81:	8b 45 f4             	mov    -0xc(%ebp),%eax
c0107f84:	8b 50 24             	mov    0x24(%eax),%edx
c0107f87:	8b 45 f4             	mov    -0xc(%ebp),%eax
c0107f8a:	8b 40 20             	mov    0x20(%eax),%eax
c0107f8d:	83 ec 0c             	sub    $0xc,%esp
c0107f90:	53                   	push   %ebx
c0107f91:	51                   	push   %ecx
c0107f92:	52                   	push   %edx
c0107f93:	50                   	push   %eax
c0107f94:	68 e0 e2 d0 c0       	push   $0xc0d0e2e0
c0107f99:	e8 22 22 00 00       	call   c010a1c0 <kprintf>
c0107f9e:	83 c4 20             	add    $0x20,%esp
            lparam->cs,
            lparam->eip);

done:
    // for all external interrupts except the spurious interrupt
    if (lparam->vector >= EXTERN_INTER) {
c0107fa1:	8b 45 f4             	mov    -0xc(%ebp),%eax
c0107fa4:	8b 40 20             	mov    0x20(%eax),%eax
c0107fa7:	83 f8 1f             	cmp    $0x1f,%eax
c0107faa:	76 06                	jbe    c0107fb2 <intr_handler+0xe3>
        pic_end_eoi();
c0107fac:	e8 b2 fe ff ff       	call   c0107e63 <pic_end_eoi>
	}

#ifdef USE_KERNEL_PT
    cpu_lcr3(__current->page_table);
#endif
    return;
c0107fb1:	90                   	nop
c0107fb2:	90                   	nop
}
c0107fb3:	8b 5d fc             	mov    -0x4(%ebp),%ebx
c0107fb6:	c9                   	leave  
c0107fb7:	c3                   	ret    

c0107fb8 <_divide_err>:

void _divide_err(unsigned long addr, int err_code)
{
c0107fb8:	55                   	push   %ebp
c0107fb9:	89 e5                	mov    %esp,%ebp
c0107fbb:	83 ec 08             	sub    $0x8,%esp
    vga_set_show(1,VGA_COLOR_BLACK,VGA_COLOR_BLUE);
c0107fbe:	83 ec 04             	sub    $0x4,%esp
c0107fc1:	6a 01                	push   $0x1
c0107fc3:	6a 00                	push   $0x0
c0107fc5:	6a 01                	push   $0x1
c0107fc7:	e8 08 e1 ff ff       	call   c01060d4 <vga_set_show>
c0107fcc:	83 c4 10             	add    $0x10,%esp
    kprintf("divide err addr = 0x%x,err code = %d\n", addr,err_code);
c0107fcf:	83 ec 04             	sub    $0x4,%esp
c0107fd2:	ff 75 0c             	push   0xc(%ebp)
c0107fd5:	ff 75 08             	push   0x8(%ebp)
c0107fd8:	68 00 e3 d0 c0       	push   $0xc0d0e300
c0107fdd:	e8 de 21 00 00       	call   c010a1c0 <kprintf>
c0107fe2:	83 c4 10             	add    $0x10,%esp
}
c0107fe5:	90                   	nop
c0107fe6:	c9                   	leave  
c0107fe7:	c3                   	ret    

c0107fe8 <do_double_fault>:

void do_double_fault(unsigned long addr, int err_code)
{
c0107fe8:	55                   	push   %ebp
c0107fe9:	89 e5                	mov    %esp,%ebp
c0107feb:	83 ec 08             	sub    $0x8,%esp
	kprintf("double_fault addr = 0x%x,err code = %d\n", addr,err_code);
c0107fee:	83 ec 04             	sub    $0x4,%esp
c0107ff1:	ff 75 0c             	push   0xc(%ebp)
c0107ff4:	ff 75 08             	push   0x8(%ebp)
c0107ff7:	68 28 e3 d0 c0       	push   $0xc0d0e328
c0107ffc:	e8 bf 21 00 00       	call   c010a1c0 <kprintf>
c0108001:	83 c4 10             	add    $0x10,%esp
}
c0108004:	90                   	nop
c0108005:	c9                   	leave  
c0108006:	c3                   	ret    

c0108007 <do_general_protection>:

void do_general_protection(unsigned long addr, int err_code)
{
c0108007:	55                   	push   %ebp
c0108008:	89 e5                	mov    %esp,%ebp
c010800a:	83 ec 08             	sub    $0x8,%esp
	kprintf("general_protection addr = 0x%x,err code = %d\n", addr,err_code);
c010800d:	83 ec 04             	sub    $0x4,%esp
c0108010:	ff 75 0c             	push   0xc(%ebp)
c0108013:	ff 75 08             	push   0x8(%ebp)
c0108016:	68 50 e3 d0 c0       	push   $0xc0d0e350
c010801b:	e8 a0 21 00 00       	call   c010a1c0 <kprintf>
c0108020:	83 c4 10             	add    $0x10,%esp
}
c0108023:	90                   	nop
c0108024:	c9                   	leave  
c0108025:	c3                   	ret    

c0108026 <do_int3>:


void do_int3(unsigned long addr, int err_code)
{
c0108026:	55                   	push   %ebp
c0108027:	89 e5                	mov    %esp,%ebp
c0108029:	83 ec 08             	sub    $0x8,%esp
    kprintf("int3 addr = 0x%x,err code = %d\n", addr,err_code);
c010802c:	83 ec 04             	sub    $0x4,%esp
c010802f:	ff 75 0c             	push   0xc(%ebp)
c0108032:	ff 75 08             	push   0x8(%ebp)
c0108035:	68 80 e3 d0 c0       	push   $0xc0d0e380
c010803a:	e8 81 21 00 00       	call   c010a1c0 <kprintf>
c010803f:	83 c4 10             	add    $0x10,%esp
}
c0108042:	90                   	nop
c0108043:	c9                   	leave  
c0108044:	c3                   	ret    

c0108045 <do_nmi>:

void do_nmi(unsigned long addr, int err_code)
{
c0108045:	55                   	push   %ebp
c0108046:	89 e5                	mov    %esp,%ebp
c0108048:	83 ec 08             	sub    $0x8,%esp
	kprintf("nmi addr = 0x%x,err code = %d\n", addr,err_code);
c010804b:	83 ec 04             	sub    $0x4,%esp
c010804e:	ff 75 0c             	push   0xc(%ebp)
c0108051:	ff 75 08             	push   0x8(%ebp)
c0108054:	68 a0 e3 d0 c0       	push   $0xc0d0e3a0
c0108059:	e8 62 21 00 00       	call   c010a1c0 <kprintf>
c010805e:	83 c4 10             	add    $0x10,%esp
}
c0108061:	90                   	nop
c0108062:	c9                   	leave  
c0108063:	c3                   	ret    

c0108064 <do_debug>:

void do_debug(unsigned long addr, int err_code)
{
c0108064:	55                   	push   %ebp
c0108065:	89 e5                	mov    %esp,%ebp
c0108067:	83 ec 08             	sub    $0x8,%esp
	kprintf("debug addr = 0x%x,err code = %d\n", addr,err_code);
c010806a:	83 ec 04             	sub    $0x4,%esp
c010806d:	ff 75 0c             	push   0xc(%ebp)
c0108070:	ff 75 08             	push   0x8(%ebp)
c0108073:	68 c0 e3 d0 c0       	push   $0xc0d0e3c0
c0108078:	e8 43 21 00 00       	call   c010a1c0 <kprintf>
c010807d:	83 c4 10             	add    $0x10,%esp
}
c0108080:	90                   	nop
c0108081:	c9                   	leave  
c0108082:	c3                   	ret    

c0108083 <do_overflow>:

void do_overflow(unsigned long addr, int err_code)
{
c0108083:	55                   	push   %ebp
c0108084:	89 e5                	mov    %esp,%ebp
c0108086:	83 ec 08             	sub    $0x8,%esp
	kprintf("overflow addr = 0x%x,err code = %d\n", addr,err_code);
c0108089:	83 ec 04             	sub    $0x4,%esp
c010808c:	ff 75 0c             	push   0xc(%ebp)
c010808f:	ff 75 08             	push   0x8(%ebp)
c0108092:	68 e4 e3 d0 c0       	push   $0xc0d0e3e4
c0108097:	e8 24 21 00 00       	call   c010a1c0 <kprintf>
c010809c:	83 c4 10             	add    $0x10,%esp
}
c010809f:	90                   	nop
c01080a0:	c9                   	leave  
c01080a1:	c3                   	ret    

c01080a2 <do_bounds>:

void do_bounds(unsigned long addr, int err_code)
{
c01080a2:	55                   	push   %ebp
c01080a3:	89 e5                	mov    %esp,%ebp
c01080a5:	83 ec 08             	sub    $0x8,%esp
	kprintf("bounds addr = 0x%x,err code = %d\n", addr,err_code);
c01080a8:	83 ec 04             	sub    $0x4,%esp
c01080ab:	ff 75 0c             	push   0xc(%ebp)
c01080ae:	ff 75 08             	push   0x8(%ebp)
c01080b1:	68 08 e4 d0 c0       	push   $0xc0d0e408
c01080b6:	e8 05 21 00 00       	call   c010a1c0 <kprintf>
c01080bb:	83 c4 10             	add    $0x10,%esp
}
c01080be:	90                   	nop
c01080bf:	c9                   	leave  
c01080c0:	c3                   	ret    

c01080c1 <do_invalid_op>:

void do_invalid_op(unsigned long addr, int err_code)
{
c01080c1:	55                   	push   %ebp
c01080c2:	89 e5                	mov    %esp,%ebp
c01080c4:	83 ec 08             	sub    $0x8,%esp
	kprintf("invalid_op addr = 0x%x,err code = %d\n", addr,err_code);
c01080c7:	83 ec 04             	sub    $0x4,%esp
c01080ca:	ff 75 0c             	push   0xc(%ebp)
c01080cd:	ff 75 08             	push   0x8(%ebp)
c01080d0:	68 2c e4 d0 c0       	push   $0xc0d0e42c
c01080d5:	e8 e6 20 00 00       	call   c010a1c0 <kprintf>
c01080da:	83 c4 10             	add    $0x10,%esp
}
c01080dd:	90                   	nop
c01080de:	c9                   	leave  
c01080df:	c3                   	ret    

c01080e0 <do_device_not_available>:

void do_device_not_available(unsigned long addr, int err_code)
{
c01080e0:	55                   	push   %ebp
c01080e1:	89 e5                	mov    %esp,%ebp
c01080e3:	83 ec 08             	sub    $0x8,%esp
	kprintf("device_not_availabel addr = 0x%x,err code = %d\n", addr,err_code);
c01080e6:	83 ec 04             	sub    $0x4,%esp
c01080e9:	ff 75 0c             	push   0xc(%ebp)
c01080ec:	ff 75 08             	push   0x8(%ebp)
c01080ef:	68 54 e4 d0 c0       	push   $0xc0d0e454
c01080f4:	e8 c7 20 00 00       	call   c010a1c0 <kprintf>
c01080f9:	83 c4 10             	add    $0x10,%esp
}
c01080fc:	90                   	nop
c01080fd:	c9                   	leave  
c01080fe:	c3                   	ret    

c01080ff <do_coprocessor_segment_overrun>:

void do_coprocessor_segment_overrun(unsigned long addr, int err_code)
{
c01080ff:	55                   	push   %ebp
c0108100:	89 e5                	mov    %esp,%ebp
c0108102:	83 ec 08             	sub    $0x8,%esp
	kprintf("coprprocessor_segment_overrun addr = 0x%x,err code = %d\n", addr,err_code);
c0108105:	83 ec 04             	sub    $0x4,%esp
c0108108:	ff 75 0c             	push   0xc(%ebp)
c010810b:	ff 75 08             	push   0x8(%ebp)
c010810e:	68 84 e4 d0 c0       	push   $0xc0d0e484
c0108113:	e8 a8 20 00 00       	call   c010a1c0 <kprintf>
c0108118:	83 c4 10             	add    $0x10,%esp
}
c010811b:	90                   	nop
c010811c:	c9                   	leave  
c010811d:	c3                   	ret    

c010811e <do_invalid_TSS>:

void do_invalid_TSS(unsigned long addr, int err_code)
{
c010811e:	55                   	push   %ebp
c010811f:	89 e5                	mov    %esp,%ebp
c0108121:	83 ec 08             	sub    $0x8,%esp
	kprintf("invalid_TSS addr = 0x%x,err code = %d\n", addr,err_code);
c0108124:	83 ec 04             	sub    $0x4,%esp
c0108127:	ff 75 0c             	push   0xc(%ebp)
c010812a:	ff 75 08             	push   0x8(%ebp)
c010812d:	68 c0 e4 d0 c0       	push   $0xc0d0e4c0
c0108132:	e8 89 20 00 00       	call   c010a1c0 <kprintf>
c0108137:	83 c4 10             	add    $0x10,%esp
}
c010813a:	90                   	nop
c010813b:	c9                   	leave  
c010813c:	c3                   	ret    

c010813d <do_segment_not_present>:

void do_segment_not_present(unsigned long addr, int err_code)
{
c010813d:	55                   	push   %ebp
c010813e:	89 e5                	mov    %esp,%ebp
c0108140:	83 ec 08             	sub    $0x8,%esp
	kprintf("segment not present addr = 0x%x,err code = %d\n", addr,err_code);
c0108143:	83 ec 04             	sub    $0x4,%esp
c0108146:	ff 75 0c             	push   0xc(%ebp)
c0108149:	ff 75 08             	push   0x8(%ebp)
c010814c:	68 e8 e4 d0 c0       	push   $0xc0d0e4e8
c0108151:	e8 6a 20 00 00       	call   c010a1c0 <kprintf>
c0108156:	83 c4 10             	add    $0x10,%esp
}
c0108159:	90                   	nop
c010815a:	c9                   	leave  
c010815b:	c3                   	ret    

c010815c <do_stack_segment>:

void do_stack_segment(unsigned long addr, int err_code)
{
c010815c:	55                   	push   %ebp
c010815d:	89 e5                	mov    %esp,%ebp
c010815f:	83 ec 08             	sub    $0x8,%esp
	kprintf("stack_segment addr = 0x%x,err code = %d\n", addr,err_code);
c0108162:	83 ec 04             	sub    $0x4,%esp
c0108165:	ff 75 0c             	push   0xc(%ebp)
c0108168:	ff 75 08             	push   0x8(%ebp)
c010816b:	68 18 e5 d0 c0       	push   $0xc0d0e518
c0108170:	e8 4b 20 00 00       	call   c010a1c0 <kprintf>
c0108175:	83 c4 10             	add    $0x10,%esp
}
c0108178:	90                   	nop
c0108179:	c9                   	leave  
c010817a:	c3                   	ret    

c010817b <do_coprocessor_error>:

void do_coprocessor_error(unsigned long addr, int err_code)
{
c010817b:	55                   	push   %ebp
c010817c:	89 e5                	mov    %esp,%ebp
c010817e:	83 ec 08             	sub    $0x8,%esp
    kprintf("coprocessor_err addr = 0x%x,err code = %d\n", addr,err_code);
c0108181:	83 ec 04             	sub    $0x4,%esp
c0108184:	ff 75 0c             	push   0xc(%ebp)
c0108187:	ff 75 08             	push   0x8(%ebp)
c010818a:	68 44 e5 d0 c0       	push   $0xc0d0e544
c010818f:	e8 2c 20 00 00       	call   c010a1c0 <kprintf>
c0108194:	83 c4 10             	add    $0x10,%esp
}
c0108197:	90                   	nop
c0108198:	c9                   	leave  
c0108199:	c3                   	ret    

c010819a <do_reserved>:

void do_reserved(unsigned long addr, int err_code)
{
c010819a:	55                   	push   %ebp
c010819b:	89 e5                	mov    %esp,%ebp
c010819d:	83 ec 08             	sub    $0x8,%esp
	kprintf("reserved addr = 0x%x,err code = %d\n", addr,err_code);
c01081a0:	83 ec 04             	sub    $0x4,%esp
c01081a3:	ff 75 0c             	push   0xc(%ebp)
c01081a6:	ff 75 08             	push   0x8(%ebp)
c01081a9:	68 70 e5 d0 c0       	push   $0xc0d0e570
c01081ae:	e8 0d 20 00 00       	call   c010a1c0 <kprintf>
c01081b3:	83 c4 10             	add    $0x10,%esp
}
c01081b6:	90                   	nop
c01081b7:	c9                   	leave  
c01081b8:	c3                   	ret    

c01081b9 <intr_time_handler>:
c01081b9:	6a 00                	push   $0x0
c01081bb:	6a 20                	push   $0x20
c01081bd:	eb 09                	jmp    c01081c8 <interrupt_wrapper>

c01081bf <intr_syscall_handler>:
c01081bf:	6a 00                	push   $0x0
c01081c1:	68 80 00 00 00       	push   $0x80
c01081c6:	eb 00                	jmp    c01081c8 <interrupt_wrapper>

c01081c8 <interrupt_wrapper>:
c01081c8:	54                   	push   %esp
c01081c9:	56                   	push   %esi
c01081ca:	55                   	push   %ebp
c01081cb:	57                   	push   %edi
c01081cc:	52                   	push   %edx
c01081cd:	51                   	push   %ecx
c01081ce:	53                   	push   %ebx
c01081cf:	50                   	push   %eax
c01081d0:	89 e0                	mov    %esp,%eax
c01081d2:	83 e4 f0             	and    $0xfffffff0,%esp
c01081d5:	83 ec 10             	sub    $0x10,%esp
c01081d8:	89 04 24             	mov    %eax,(%esp)
c01081db:	e8 ef fc ff ff       	call   c0107ecf <intr_handler>

c01081e0 <soft_iret>:
c01081e0:	5c                   	pop    %esp
c01081e1:	58                   	pop    %eax
c01081e2:	5b                   	pop    %ebx
c01081e3:	59                   	pop    %ecx
c01081e4:	5a                   	pop    %edx
c01081e5:	5f                   	pop    %edi
c01081e6:	5d                   	pop    %ebp
c01081e7:	5e                   	pop    %esi
c01081e8:	5c                   	pop    %esp
c01081e9:	83 c4 08             	add    $0x8,%esp
c01081ec:	cf                   	iret   

c01081ed <_no_err_code>:
c01081ed:	87 04 24             	xchg   %eax,(%esp)
c01081f0:	53                   	push   %ebx
c01081f1:	51                   	push   %ecx
c01081f2:	52                   	push   %edx
c01081f3:	57                   	push   %edi
c01081f4:	56                   	push   %esi
c01081f5:	55                   	push   %ebp
c01081f6:	1e                   	push   %ds
c01081f7:	06                   	push   %es
c01081f8:	0f a0                	push   %fs
c01081fa:	6a 00                	push   $0x0
c01081fc:	8d 54 24 2c          	lea    0x2c(%esp),%edx
c0108200:	52                   	push   %edx
c0108201:	ba 10 00 00 00       	mov    $0x10,%edx
c0108206:	8e da                	mov    %edx,%ds
c0108208:	8e c2                	mov    %edx,%es
c010820a:	8e e2                	mov    %edx,%fs
c010820c:	ff d0                	call   *%eax
c010820e:	83 c4 08             	add    $0x8,%esp
c0108211:	0f a1                	pop    %fs
c0108213:	07                   	pop    %es
c0108214:	1f                   	pop    %ds
c0108215:	5d                   	pop    %ebp
c0108216:	5e                   	pop    %esi
c0108217:	5f                   	pop    %edi
c0108218:	5a                   	pop    %edx
c0108219:	59                   	pop    %ecx
c010821a:	5b                   	pop    %ebx
c010821b:	58                   	pop    %eax
c010821c:	cf                   	iret   

c010821d <_err_code>:
c010821d:	87 44 24 04          	xchg   %eax,0x4(%esp)
c0108221:	87 1c 24             	xchg   %ebx,(%esp)
c0108224:	51                   	push   %ecx
c0108225:	52                   	push   %edx
c0108226:	57                   	push   %edi
c0108227:	56                   	push   %esi
c0108228:	55                   	push   %ebp
c0108229:	1e                   	push   %ds
c010822a:	06                   	push   %es
c010822b:	0f a0                	push   %fs
c010822d:	50                   	push   %eax
c010822e:	8d 44 24 2c          	lea    0x2c(%esp),%eax
c0108232:	50                   	push   %eax
c0108233:	b8 10 00 00 00       	mov    $0x10,%eax
c0108238:	8e d8                	mov    %eax,%ds
c010823a:	8e c0                	mov    %eax,%es
c010823c:	8e e0                	mov    %eax,%fs
c010823e:	ff d3                	call   *%ebx
c0108240:	83 c4 08             	add    $0x8,%esp
c0108243:	0f a1                	pop    %fs
c0108245:	07                   	pop    %es
c0108246:	1f                   	pop    %ds
c0108247:	5d                   	pop    %ebp
c0108248:	5e                   	pop    %esi
c0108249:	5f                   	pop    %edi
c010824a:	5a                   	pop    %edx
c010824b:	59                   	pop    %ecx
c010824c:	5b                   	pop    %ebx
c010824d:	58                   	pop    %eax
c010824e:	cf                   	iret   

c010824f <divide_error>:
c010824f:	68 b8 7f 10 c0       	push   $0xc0107fb8
c0108254:	eb 97                	jmp    c01081ed <_no_err_code>

c0108256 <debug>:
c0108256:	68 26 80 10 c0       	push   $0xc0108026
c010825b:	eb 90                	jmp    c01081ed <_no_err_code>

c010825d <nmi>:
c010825d:	68 45 80 10 c0       	push   $0xc0108045
c0108262:	eb 89                	jmp    c01081ed <_no_err_code>

c0108264 <int3>:
c0108264:	68 26 80 10 c0       	push   $0xc0108026
c0108269:	eb 82                	jmp    c01081ed <_no_err_code>

c010826b <overflow>:
c010826b:	68 83 80 10 c0       	push   $0xc0108083
c0108270:	e9 78 ff ff ff       	jmp    c01081ed <_no_err_code>

c0108275 <bounds>:
c0108275:	68 a2 80 10 c0       	push   $0xc01080a2
c010827a:	e9 6e ff ff ff       	jmp    c01081ed <_no_err_code>

c010827f <invalid_op>:
c010827f:	68 c1 80 10 c0       	push   $0xc01080c1
c0108284:	e9 64 ff ff ff       	jmp    c01081ed <_no_err_code>

c0108289 <coprocessor_segment_overrun>:
c0108289:	68 ff 80 10 c0       	push   $0xc01080ff
c010828e:	e9 5a ff ff ff       	jmp    c01081ed <_no_err_code>

c0108293 <reserved>:
c0108293:	68 9a 81 10 c0       	push   $0xc010819a
c0108298:	e9 50 ff ff ff       	jmp    c01081ed <_no_err_code>

c010829d <invalid_TSS>:
c010829d:	68 1e 81 10 c0       	push   $0xc010811e
c01082a2:	e9 76 ff ff ff       	jmp    c010821d <_err_code>

c01082a7 <segment_not_present>:
c01082a7:	68 3d 81 10 c0       	push   $0xc010813d
c01082ac:	e9 6c ff ff ff       	jmp    c010821d <_err_code>

c01082b1 <stack_segment>:
c01082b1:	68 5c 81 10 c0       	push   $0xc010815c
c01082b6:	e9 62 ff ff ff       	jmp    c010821d <_err_code>

c01082bb <general_protection>:
c01082bb:	68 07 80 10 c0       	push   $0xc0108007
c01082c0:	e9 58 ff ff ff       	jmp    c010821d <_err_code>

c01082c5 <io_inl>:
{
c01082c5:	55                   	push   %ebp
c01082c6:	89 e5                	mov    %esp,%ebp
c01082c8:	83 ec 10             	sub    $0x10,%esp
    asm volatile("inl %w1,%0" : "=a"(data) : "d"(port));
c01082cb:	8b 45 08             	mov    0x8(%ebp),%eax
c01082ce:	89 c2                	mov    %eax,%edx
c01082d0:	ed                   	in     (%dx),%eax
c01082d1:	89 45 fc             	mov    %eax,-0x4(%ebp)
    return data;
c01082d4:	8b 45 fc             	mov    -0x4(%ebp),%eax
}
c01082d7:	c9                   	leave  
c01082d8:	c3                   	ret    

c01082d9 <io_outl>:
{
c01082d9:	55                   	push   %ebp
c01082da:	89 e5                	mov    %esp,%ebp
    asm volatile("outl %0,%w1" : : "a"(data), "d"(port));
c01082dc:	8b 45 0c             	mov    0xc(%ebp),%eax
c01082df:	8b 55 08             	mov    0x8(%ebp),%edx
c01082e2:	ef                   	out    %eax,(%dx)
}
c01082e3:	90                   	nop
c01082e4:	5d                   	pop    %ebp
c01082e5:	c3                   	ret    

c01082e6 <__llist_add>:
{
c01082e6:	55                   	push   %ebp
c01082e7:	89 e5                	mov    %esp,%ebp
    next->prev = elem;
c01082e9:	8b 45 10             	mov    0x10(%ebp),%eax
c01082ec:	8b 55 08             	mov    0x8(%ebp),%edx
c01082ef:	89 10                	mov    %edx,(%eax)
    elem->next = next;
c01082f1:	8b 45 08             	mov    0x8(%ebp),%eax
c01082f4:	8b 55 10             	mov    0x10(%ebp),%edx
c01082f7:	89 50 04             	mov    %edx,0x4(%eax)
    elem->prev = prev;
c01082fa:	8b 45 08             	mov    0x8(%ebp),%eax
c01082fd:	8b 55 0c             	mov    0xc(%ebp),%edx
c0108300:	89 10                	mov    %edx,(%eax)
    prev->next = elem;
c0108302:	8b 45 0c             	mov    0xc(%ebp),%eax
c0108305:	8b 55 08             	mov    0x8(%ebp),%edx
c0108308:	89 50 04             	mov    %edx,0x4(%eax)
}
c010830b:	90                   	nop
c010830c:	5d                   	pop    %ebp
c010830d:	c3                   	ret    

c010830e <llist_init_head>:
static inline void llist_init_head(struct llist_header* head) {
c010830e:	55                   	push   %ebp
c010830f:	89 e5                	mov    %esp,%ebp
    head->next = head;
c0108311:	8b 45 08             	mov    0x8(%ebp),%eax
c0108314:	8b 55 08             	mov    0x8(%ebp),%edx
c0108317:	89 50 04             	mov    %edx,0x4(%eax)
    head->prev = head;
c010831a:	8b 45 08             	mov    0x8(%ebp),%eax
c010831d:	8b 55 08             	mov    0x8(%ebp),%edx
c0108320:	89 10                	mov    %edx,(%eax)
}
c0108322:	90                   	nop
c0108323:	5d                   	pop    %ebp
c0108324:	c3                   	ret    

c0108325 <llist_append>:
{
c0108325:	55                   	push   %ebp
c0108326:	89 e5                	mov    %esp,%ebp
    __llist_add(elem, head, head->next);
c0108328:	8b 45 08             	mov    0x8(%ebp),%eax
c010832b:	8b 40 04             	mov    0x4(%eax),%eax
c010832e:	50                   	push   %eax
c010832f:	ff 75 08             	push   0x8(%ebp)
c0108332:	ff 75 0c             	push   0xc(%ebp)
c0108335:	e8 ac ff ff ff       	call   c01082e6 <__llist_add>
c010833a:	83 c4 0c             	add    $0xc,%esp
}
c010833d:	90                   	nop
c010833e:	c9                   	leave  
c010833f:	c3                   	ret    

c0108340 <pci_probe_device>:
static struct llist_header pci_devices;

void pci_probe_msi_info(struct pci_device* device);

void pci_probe_device(int bus, int dev, int funct)
{
c0108340:	55                   	push   %ebp
c0108341:	89 e5                	mov    %esp,%ebp
c0108343:	56                   	push   %esi
c0108344:	53                   	push   %ebx
c0108345:	83 ec 40             	sub    $0x40,%esp
    uint32_t base = PCI_ADDRESS(bus, dev, funct);
c0108348:	8b 45 08             	mov    0x8(%ebp),%eax
c010834b:	c1 e0 10             	shl    $0x10,%eax
c010834e:	25 00 00 ff 00       	and    $0xff0000,%eax
c0108353:	89 c2                	mov    %eax,%edx
c0108355:	8b 45 0c             	mov    0xc(%ebp),%eax
c0108358:	c1 e0 0b             	shl    $0xb,%eax
c010835b:	25 00 f8 07 00       	and    $0x7f800,%eax
c0108360:	09 c2                	or     %eax,%edx
c0108362:	8b 45 10             	mov    0x10(%ebp),%eax
c0108365:	c1 e0 08             	shl    $0x8,%eax
c0108368:	0f b7 c0             	movzwl %ax,%eax
c010836b:	09 d0                	or     %edx,%eax
c010836d:	0d 00 00 00 80       	or     $0x80000000,%eax
c0108372:	89 45 ec             	mov    %eax,-0x14(%ebp)
    pci_reg_t reg1 = pci_read_cspace(base, 0);
c0108375:	83 ec 08             	sub    $0x8,%esp
c0108378:	6a 00                	push   $0x0
c010837a:	ff 75 ec             	push   -0x14(%ebp)
c010837d:	e8 bb 05 00 00       	call   c010893d <pci_read_cspace>
c0108382:	83 c4 10             	add    $0x10,%esp
c0108385:	89 45 e8             	mov    %eax,-0x18(%ebp)

    // Vendor=0xffff则表示设备不存在
    if (PCI_DEV_VENDOR(reg1) == PCI_VENDOR_INVLD) {
c0108388:	8b 45 e8             	mov    -0x18(%ebp),%eax
c010838b:	0f b7 c0             	movzwl %ax,%eax
c010838e:	3d ff ff 00 00       	cmp    $0xffff,%eax
c0108393:	0f 84 0d 01 00 00    	je     c01084a6 <pci_probe_device+0x166>
        return;
    }

    pci_reg_t hdr_type = pci_read_cspace(base, 0xc);
c0108399:	83 ec 08             	sub    $0x8,%esp
c010839c:	6a 0c                	push   $0xc
c010839e:	ff 75 ec             	push   -0x14(%ebp)
c01083a1:	e8 97 05 00 00       	call   c010893d <pci_read_cspace>
c01083a6:	83 c4 10             	add    $0x10,%esp
c01083a9:	89 45 f4             	mov    %eax,-0xc(%ebp)
    hdr_type = (hdr_type >> 16) & 0xff;
c01083ac:	8b 45 f4             	mov    -0xc(%ebp),%eax
c01083af:	c1 e8 10             	shr    $0x10,%eax
c01083b2:	25 ff 00 00 00       	and    $0xff,%eax
c01083b7:	89 45 f4             	mov    %eax,-0xc(%ebp)

    // 防止堆栈溢出
    // QEMU的ICH9/Q35实现似乎有点问题，对于多功能设备的每一个功能的header type
    //  都将第七位置位。而virtualbox 就没有这个毛病。
    if ((hdr_type & 0x80) && funct == 0) {
c01083ba:	8b 45 f4             	mov    -0xc(%ebp),%eax
c01083bd:	25 80 00 00 00       	and    $0x80,%eax
c01083c2:	85 c0                	test   %eax,%eax
c01083c4:	74 34                	je     c01083fa <pci_probe_device+0xba>
c01083c6:	83 7d 10 00          	cmpl   $0x0,0x10(%ebp)
c01083ca:	75 2e                	jne    c01083fa <pci_probe_device+0xba>
        hdr_type = hdr_type & ~0x80;
c01083cc:	81 65 f4 7f ff ff ff 	andl   $0xffffff7f,-0xc(%ebp)
        // 探测多用途设备（multi-function device）
        for (int i = 1; i < 7; i++) {
c01083d3:	c7 45 f0 01 00 00 00 	movl   $0x1,-0x10(%ebp)
c01083da:	eb 18                	jmp    c01083f4 <pci_probe_device+0xb4>
            pci_probe_device(bus, dev, i);
c01083dc:	83 ec 04             	sub    $0x4,%esp
c01083df:	ff 75 f0             	push   -0x10(%ebp)
c01083e2:	ff 75 0c             	push   0xc(%ebp)
c01083e5:	ff 75 08             	push   0x8(%ebp)
c01083e8:	e8 53 ff ff ff       	call   c0108340 <pci_probe_device>
c01083ed:	83 c4 10             	add    $0x10,%esp
        for (int i = 1; i < 7; i++) {
c01083f0:	83 45 f0 01          	addl   $0x1,-0x10(%ebp)
c01083f4:	83 7d f0 06          	cmpl   $0x6,-0x10(%ebp)
c01083f8:	7e e2                	jle    c01083dc <pci_probe_device+0x9c>
        }
    }

    if (hdr_type != PCI_TDEV) {
c01083fa:	83 7d f4 00          	cmpl   $0x0,-0xc(%ebp)
c01083fe:	0f 85 a5 00 00 00    	jne    c01084a9 <pci_probe_device+0x169>
        // XXX: 目前忽略所有桥接设备，比如PCI-PCI桥接器，或者是CardBus桥接器
        return;
    }

    pci_reg_t intr = pci_read_cspace(base, 0x3c);
c0108404:	83 ec 08             	sub    $0x8,%esp
c0108407:	6a 3c                	push   $0x3c
c0108409:	ff 75 ec             	push   -0x14(%ebp)
c010840c:	e8 2c 05 00 00       	call   c010893d <pci_read_cspace>
c0108411:	83 c4 10             	add    $0x10,%esp
c0108414:	89 45 e4             	mov    %eax,-0x1c(%ebp)
    pci_reg_t mclass = pci_read_cspace(base, 0x8);
c0108417:	83 ec 08             	sub    $0x8,%esp
c010841a:	6a 08                	push   $0x8
c010841c:	ff 75 ec             	push   -0x14(%ebp)
c010841f:	e8 19 05 00 00       	call   c010893d <pci_read_cspace>
c0108424:	83 c4 10             	add    $0x10,%esp
c0108427:	89 45 e0             	mov    %eax,-0x20(%ebp)

    struct pci_device* device = k_malloc(sizeof(struct pci_device));
c010842a:	83 ec 0c             	sub    $0xc,%esp
c010842d:	6a 1c                	push   $0x1c
c010842f:	e8 92 eb ff ff       	call   c0106fc6 <k_malloc>
c0108434:	83 c4 10             	add    $0x10,%esp
c0108437:	89 45 dc             	mov    %eax,-0x24(%ebp)
    *device = (struct pci_device){ .device_info = reg1,
c010843a:	8b 45 e4             	mov    -0x1c(%ebp),%eax
c010843d:	89 c3                	mov    %eax,%ebx
c010843f:	8b 55 dc             	mov    -0x24(%ebp),%edx
c0108442:	be 00 00 00 00       	mov    $0x0,%esi
c0108447:	b8 1c 00 00 00       	mov    $0x1c,%eax
c010844c:	83 e0 fc             	and    $0xfffffffc,%eax
c010844f:	89 c1                	mov    %eax,%ecx
c0108451:	b8 00 00 00 00       	mov    $0x0,%eax
c0108456:	89 34 02             	mov    %esi,(%edx,%eax,1)
c0108459:	83 c0 04             	add    $0x4,%eax
c010845c:	39 c8                	cmp    %ecx,%eax
c010845e:	72 f6                	jb     c0108456 <pci_probe_device+0x116>
c0108460:	8b 45 dc             	mov    -0x24(%ebp),%eax
c0108463:	8b 55 e8             	mov    -0x18(%ebp),%edx
c0108466:	89 50 08             	mov    %edx,0x8(%eax)
c0108469:	8b 45 dc             	mov    -0x24(%ebp),%eax
c010846c:	8b 55 e0             	mov    -0x20(%ebp),%edx
c010846f:	89 50 0c             	mov    %edx,0xc(%eax)
c0108472:	8b 45 dc             	mov    -0x24(%ebp),%eax
c0108475:	8b 55 ec             	mov    -0x14(%ebp),%edx
c0108478:	89 50 10             	mov    %edx,0x10(%eax)
c010847b:	8b 45 dc             	mov    -0x24(%ebp),%eax
c010847e:	66 89 58 18          	mov    %bx,0x18(%eax)
                                   .class_info = mclass,
                                   .cspace_base = base,
                                   .intr_info = intr };

    pci_probe_msi_info(device);
c0108482:	83 ec 0c             	sub    $0xc,%esp
c0108485:	ff 75 dc             	push   -0x24(%ebp)
c0108488:	e8 67 00 00 00       	call   c01084f4 <pci_probe_msi_info>
c010848d:	83 c4 10             	add    $0x10,%esp

    llist_append(&pci_devices, &device->dev_chain);
c0108490:	8b 45 dc             	mov    -0x24(%ebp),%eax
c0108493:	83 ec 08             	sub    $0x8,%esp
c0108496:	50                   	push   %eax
c0108497:	68 00 b5 d0 c0       	push   $0xc0d0b500
c010849c:	e8 84 fe ff ff       	call   c0108325 <llist_append>
c01084a1:	83 c4 10             	add    $0x10,%esp
c01084a4:	eb 04                	jmp    c01084aa <pci_probe_device+0x16a>
        return;
c01084a6:	90                   	nop
c01084a7:	eb 01                	jmp    c01084aa <pci_probe_device+0x16a>
        return;
c01084a9:	90                   	nop
}
c01084aa:	8d 65 f8             	lea    -0x8(%ebp),%esp
c01084ad:	5b                   	pop    %ebx
c01084ae:	5e                   	pop    %esi
c01084af:	5d                   	pop    %ebp
c01084b0:	c3                   	ret    

c01084b1 <pci_probe>:

void pci_probe()
{
c01084b1:	55                   	push   %ebp
c01084b2:	89 e5                	mov    %esp,%ebp
c01084b4:	83 ec 18             	sub    $0x18,%esp
    // 暴力扫描所有PCI设备
    // XXX: 尽管最多会有256条PCI总线，但就目前而言，只考虑bus #0就足够了
    for (int bus = 0; bus < 1; bus++) {
c01084b7:	c7 45 f4 00 00 00 00 	movl   $0x0,-0xc(%ebp)
c01084be:	eb 2a                	jmp    c01084ea <pci_probe+0x39>
        for (int dev = 0; dev < 32; dev++) {
c01084c0:	c7 45 f0 00 00 00 00 	movl   $0x0,-0x10(%ebp)
c01084c7:	eb 17                	jmp    c01084e0 <pci_probe+0x2f>
            pci_probe_device(bus, dev, 0);
c01084c9:	83 ec 04             	sub    $0x4,%esp
c01084cc:	6a 00                	push   $0x0
c01084ce:	ff 75 f0             	push   -0x10(%ebp)
c01084d1:	ff 75 f4             	push   -0xc(%ebp)
c01084d4:	e8 67 fe ff ff       	call   c0108340 <pci_probe_device>
c01084d9:	83 c4 10             	add    $0x10,%esp
        for (int dev = 0; dev < 32; dev++) {
c01084dc:	83 45 f0 01          	addl   $0x1,-0x10(%ebp)
c01084e0:	83 7d f0 1f          	cmpl   $0x1f,-0x10(%ebp)
c01084e4:	7e e3                	jle    c01084c9 <pci_probe+0x18>
    for (int bus = 0; bus < 1; bus++) {
c01084e6:	83 45 f4 01          	addl   $0x1,-0xc(%ebp)
c01084ea:	83 7d f4 00          	cmpl   $0x0,-0xc(%ebp)
c01084ee:	7e d0                	jle    c01084c0 <pci_probe+0xf>
        }
    }
}
c01084f0:	90                   	nop
c01084f1:	90                   	nop
c01084f2:	c9                   	leave  
c01084f3:	c3                   	ret    

c01084f4 <pci_probe_msi_info>:

void pci_probe_msi_info(struct pci_device* device)
{
c01084f4:	55                   	push   %ebp
c01084f5:	89 e5                	mov    %esp,%ebp
c01084f7:	83 ec 18             	sub    $0x18,%esp
    // Note that Virtualbox have to use ICH9 chipset for MSI support.
    // Qemu seems ok with default PIIX3, Bochs is pending to test...
    //    See https://www.virtualbox.org/manual/ch03.html (section 3.5.1)
    pci_reg_t status =
      pci_read_cspace(device->cspace_base, PCI_REG_STATUS_CMD) >> 16;
c01084fa:	8b 45 08             	mov    0x8(%ebp),%eax
c01084fd:	8b 40 10             	mov    0x10(%eax),%eax
c0108500:	83 ec 08             	sub    $0x8,%esp
c0108503:	6a 04                	push   $0x4
c0108505:	50                   	push   %eax
c0108506:	e8 32 04 00 00       	call   c010893d <pci_read_cspace>
c010850b:	83 c4 10             	add    $0x10,%esp
    pci_reg_t status =
c010850e:	c1 e8 10             	shr    $0x10,%eax
c0108511:	89 45 f0             	mov    %eax,-0x10(%ebp)

    if (!(status & 0x10)) {
c0108514:	8b 45 f0             	mov    -0x10(%ebp),%eax
c0108517:	83 e0 10             	and    $0x10,%eax
c010851a:	85 c0                	test   %eax,%eax
c010851c:	75 0c                	jne    c010852a <pci_probe_msi_info+0x36>
        device->msi_loc = 0;
c010851e:	8b 45 08             	mov    0x8(%ebp),%eax
c0108521:	c7 40 14 00 00 00 00 	movl   $0x0,0x14(%eax)
        return;
c0108528:	eb 61                	jmp    c010858b <pci_probe_msi_info+0x97>
    }

    pci_reg_t cap_ptr = pci_read_cspace(device->cspace_base, 0x34) & 0xff;
c010852a:	8b 45 08             	mov    0x8(%ebp),%eax
c010852d:	8b 40 10             	mov    0x10(%eax),%eax
c0108530:	83 ec 08             	sub    $0x8,%esp
c0108533:	6a 34                	push   $0x34
c0108535:	50                   	push   %eax
c0108536:	e8 02 04 00 00       	call   c010893d <pci_read_cspace>
c010853b:	83 c4 10             	add    $0x10,%esp
c010853e:	25 ff 00 00 00       	and    $0xff,%eax
c0108543:	89 45 f4             	mov    %eax,-0xc(%ebp)
    uint32_t cap_hdr;

    while (cap_ptr) {
c0108546:	eb 3d                	jmp    c0108585 <pci_probe_msi_info+0x91>
        cap_hdr = pci_read_cspace(device->cspace_base, cap_ptr);
c0108548:	8b 55 f4             	mov    -0xc(%ebp),%edx
c010854b:	8b 45 08             	mov    0x8(%ebp),%eax
c010854e:	8b 40 10             	mov    0x10(%eax),%eax
c0108551:	83 ec 08             	sub    $0x8,%esp
c0108554:	52                   	push   %edx
c0108555:	50                   	push   %eax
c0108556:	e8 e2 03 00 00       	call   c010893d <pci_read_cspace>
c010855b:	83 c4 10             	add    $0x10,%esp
c010855e:	89 45 ec             	mov    %eax,-0x14(%ebp)
        if ((cap_hdr & 0xff) == 0x5) {
c0108561:	8b 45 ec             	mov    -0x14(%ebp),%eax
c0108564:	0f b6 c0             	movzbl %al,%eax
c0108567:	83 f8 05             	cmp    $0x5,%eax
c010856a:	75 0b                	jne    c0108577 <pci_probe_msi_info+0x83>
            // MSI
            device->msi_loc = cap_ptr;
c010856c:	8b 45 08             	mov    0x8(%ebp),%eax
c010856f:	8b 55 f4             	mov    -0xc(%ebp),%edx
c0108572:	89 50 14             	mov    %edx,0x14(%eax)
            return;
c0108575:	eb 14                	jmp    c010858b <pci_probe_msi_info+0x97>
        }
        cap_ptr = (cap_hdr >> 8) & 0xff;
c0108577:	8b 45 ec             	mov    -0x14(%ebp),%eax
c010857a:	c1 e8 08             	shr    $0x8,%eax
c010857d:	25 ff 00 00 00       	and    $0xff,%eax
c0108582:	89 45 f4             	mov    %eax,-0xc(%ebp)
    while (cap_ptr) {
c0108585:	83 7d f4 00          	cmpl   $0x0,-0xc(%ebp)
c0108589:	75 bd                	jne    c0108548 <pci_probe_msi_info+0x54>
    }
}
c010858b:	c9                   	leave  
c010858c:	c3                   	ret    

c010858d <pci_print_device>:

#define PCI_PRINT_BAR_LISTING

void pci_print_device()
{
c010858d:	55                   	push   %ebp
c010858e:	89 e5                	mov    %esp,%ebp
c0108590:	57                   	push   %edi
c0108591:	56                   	push   %esi
c0108592:	53                   	push   %ebx
c0108593:	83 ec 2c             	sub    $0x2c,%esp
    struct pci_device *pos, *n;
    llist_for_each(pos, n, &pci_devices, dev_chain)
c0108596:	a1 04 b5 d0 c0       	mov    0xc0d0b504,%eax
c010859b:	89 45 d8             	mov    %eax,-0x28(%ebp)
c010859e:	8b 45 d8             	mov    -0x28(%ebp),%eax
c01085a1:	89 45 e4             	mov    %eax,-0x1c(%ebp)
c01085a4:	8b 45 e4             	mov    -0x1c(%ebp),%eax
c01085a7:	8b 40 04             	mov    0x4(%eax),%eax
c01085aa:	89 45 d4             	mov    %eax,-0x2c(%ebp)
c01085ad:	8b 45 d4             	mov    -0x2c(%ebp),%eax
c01085b0:	89 45 e0             	mov    %eax,-0x20(%ebp)
c01085b3:	e9 35 01 00 00       	jmp    c01086ed <pci_print_device+0x160>
                PCI_BUS_NUM(pos->cspace_base),
                PCI_SLOT_NUM(pos->cspace_base),
                PCI_FUNCT_NUM(pos->cspace_base),
                PCI_DEV_VENDOR(pos->device_info),
                PCI_DEV_DEVID(pos->device_info),
                PCI_DEV_CLASS(pos->class_info));
c01085b8:	8b 45 e4             	mov    -0x1c(%ebp),%eax
c01085bb:	8b 40 0c             	mov    0xc(%eax),%eax
        kprintf("(B%xh:D%xh:F%xh) Dev %x:%x, Class 0x%x\n",
c01085be:	c1 e8 08             	shr    $0x8,%eax
c01085c1:	89 c7                	mov    %eax,%edi
                PCI_DEV_DEVID(pos->device_info),
c01085c3:	8b 45 e4             	mov    -0x1c(%ebp),%eax
c01085c6:	8b 40 08             	mov    0x8(%eax),%eax
        kprintf("(B%xh:D%xh:F%xh) Dev %x:%x, Class 0x%x\n",
c01085c9:	c1 e8 10             	shr    $0x10,%eax
c01085cc:	89 c6                	mov    %eax,%esi
                PCI_DEV_VENDOR(pos->device_info),
c01085ce:	8b 45 e4             	mov    -0x1c(%ebp),%eax
c01085d1:	8b 40 08             	mov    0x8(%eax),%eax
        kprintf("(B%xh:D%xh:F%xh) Dev %x:%x, Class 0x%x\n",
c01085d4:	0f b7 d0             	movzwl %ax,%edx
                PCI_FUNCT_NUM(pos->cspace_base),
c01085d7:	8b 45 e4             	mov    -0x1c(%ebp),%eax
c01085da:	8b 40 10             	mov    0x10(%eax),%eax
c01085dd:	c1 e8 08             	shr    $0x8,%eax
        kprintf("(B%xh:D%xh:F%xh) Dev %x:%x, Class 0x%x\n",
c01085e0:	83 e0 07             	and    $0x7,%eax
c01085e3:	89 c3                	mov    %eax,%ebx
                PCI_SLOT_NUM(pos->cspace_base),
c01085e5:	8b 45 e4             	mov    -0x1c(%ebp),%eax
c01085e8:	8b 40 10             	mov    0x10(%eax),%eax
c01085eb:	c1 e8 0b             	shr    $0xb,%eax
        kprintf("(B%xh:D%xh:F%xh) Dev %x:%x, Class 0x%x\n",
c01085ee:	83 e0 1f             	and    $0x1f,%eax
c01085f1:	89 c1                	mov    %eax,%ecx
                PCI_BUS_NUM(pos->cspace_base),
c01085f3:	8b 45 e4             	mov    -0x1c(%ebp),%eax
c01085f6:	8b 40 10             	mov    0x10(%eax),%eax
c01085f9:	c1 e8 10             	shr    $0x10,%eax
        kprintf("(B%xh:D%xh:F%xh) Dev %x:%x, Class 0x%x\n",
c01085fc:	0f b6 c0             	movzbl %al,%eax
c01085ff:	83 ec 04             	sub    $0x4,%esp
c0108602:	57                   	push   %edi
c0108603:	56                   	push   %esi
c0108604:	52                   	push   %edx
c0108605:	53                   	push   %ebx
c0108606:	51                   	push   %ecx
c0108607:	50                   	push   %eax
c0108608:	68 94 e5 d0 c0       	push   $0xc0d0e594
c010860d:	e8 ae 1b 00 00       	call   c010a1c0 <kprintf>
c0108612:	83 c4 20             	add    $0x20,%esp

        kprintf("\t IRQ: %d, INT#x: %d\n",
                PCI_INTR_IRQ(pos->intr_info),
                PCI_INTR_PIN(pos->intr_info));
c0108615:	8b 45 e4             	mov    -0x1c(%ebp),%eax
c0108618:	0f b7 40 18          	movzwl 0x18(%eax),%eax
c010861c:	66 c1 e8 08          	shr    $0x8,%ax
        kprintf("\t IRQ: %d, INT#x: %d\n",
c0108620:	0f b7 d0             	movzwl %ax,%edx
                PCI_INTR_IRQ(pos->intr_info),
c0108623:	8b 45 e4             	mov    -0x1c(%ebp),%eax
c0108626:	0f b7 40 18          	movzwl 0x18(%eax),%eax
        kprintf("\t IRQ: %d, INT#x: %d\n",
c010862a:	0f b7 c0             	movzwl %ax,%eax
c010862d:	0f b6 c0             	movzbl %al,%eax
c0108630:	83 ec 04             	sub    $0x4,%esp
c0108633:	52                   	push   %edx
c0108634:	50                   	push   %eax
c0108635:	68 bc e5 d0 c0       	push   $0xc0d0e5bc
c010863a:	e8 81 1b 00 00       	call   c010a1c0 <kprintf>
c010863f:	83 c4 10             	add    $0x10,%esp
#ifdef PCI_PRINT_BAR_LISTING
        pci_reg_t bar;
        for (size_t i = 1; i <= 6; i++) {
c0108642:	c7 45 dc 01 00 00 00 	movl   $0x1,-0x24(%ebp)
c0108649:	eb 66                	jmp    c01086b1 <pci_print_device+0x124>
            size_t size = pci_bar_sizing(pos, &bar, i);
c010864b:	83 ec 04             	sub    $0x4,%esp
c010864e:	ff 75 dc             	push   -0x24(%ebp)
c0108651:	8d 45 c8             	lea    -0x38(%ebp),%eax
c0108654:	50                   	push   %eax
c0108655:	ff 75 e4             	push   -0x1c(%ebp)
c0108658:	e8 a8 00 00 00       	call   c0108705 <pci_bar_sizing>
c010865d:	83 c4 10             	add    $0x10,%esp
c0108660:	89 45 cc             	mov    %eax,-0x34(%ebp)
            if (!bar)
c0108663:	8b 45 c8             	mov    -0x38(%ebp),%eax
c0108666:	85 c0                	test   %eax,%eax
c0108668:	74 42                	je     c01086ac <pci_print_device+0x11f>
                continue;
            if (PCI_BAR_MMIO(bar)) {
c010866a:	8b 45 c8             	mov    -0x38(%ebp),%eax
c010866d:	83 e0 01             	and    $0x1,%eax
c0108670:	85 c0                	test   %eax,%eax
c0108672:	75 1c                	jne    c0108690 <pci_print_device+0x103>
                kprintf("\t BAR#%d (MMIO) %p [%d]\n",
c0108674:	8b 45 c8             	mov    -0x38(%ebp),%eax
c0108677:	83 e0 f0             	and    $0xfffffff0,%eax
c010867a:	ff 75 cc             	push   -0x34(%ebp)
c010867d:	50                   	push   %eax
c010867e:	ff 75 dc             	push   -0x24(%ebp)
c0108681:	68 d2 e5 d0 c0       	push   $0xc0d0e5d2
c0108686:	e8 35 1b 00 00       	call   c010a1c0 <kprintf>
c010868b:	83 c4 10             	add    $0x10,%esp
c010868e:	eb 1d                	jmp    c01086ad <pci_print_device+0x120>
                        i,
                        PCI_BAR_ADDR_MM(bar),
                        size);
            } else {
                kprintf("\t BAR#%d (I/O) %p [%d]\n",
c0108690:	8b 45 c8             	mov    -0x38(%ebp),%eax
c0108693:	83 e0 fc             	and    $0xfffffffc,%eax
c0108696:	ff 75 cc             	push   -0x34(%ebp)
c0108699:	50                   	push   %eax
c010869a:	ff 75 dc             	push   -0x24(%ebp)
c010869d:	68 eb e5 d0 c0       	push   $0xc0d0e5eb
c01086a2:	e8 19 1b 00 00       	call   c010a1c0 <kprintf>
c01086a7:	83 c4 10             	add    $0x10,%esp
c01086aa:	eb 01                	jmp    c01086ad <pci_print_device+0x120>
                continue;
c01086ac:	90                   	nop
        for (size_t i = 1; i <= 6; i++) {
c01086ad:	83 45 dc 01          	addl   $0x1,-0x24(%ebp)
c01086b1:	83 7d dc 06          	cmpl   $0x6,-0x24(%ebp)
c01086b5:	76 94                	jbe    c010864b <pci_print_device+0xbe>
                        PCI_BAR_ADDR_IO(bar),
                        size);
            }
        }
#endif
        if (pos->msi_loc) {
c01086b7:	8b 45 e4             	mov    -0x1c(%ebp),%eax
c01086ba:	8b 40 14             	mov    0x14(%eax),%eax
c01086bd:	85 c0                	test   %eax,%eax
c01086bf:	74 17                	je     c01086d8 <pci_print_device+0x14b>
            kprintf("\t MSI supported (@%xh)\n", pos->msi_loc);
c01086c1:	8b 45 e4             	mov    -0x1c(%ebp),%eax
c01086c4:	8b 40 14             	mov    0x14(%eax),%eax
c01086c7:	83 ec 08             	sub    $0x8,%esp
c01086ca:	50                   	push   %eax
c01086cb:	68 03 e6 d0 c0       	push   $0xc0d0e603
c01086d0:	e8 eb 1a 00 00       	call   c010a1c0 <kprintf>
c01086d5:	83 c4 10             	add    $0x10,%esp
    llist_for_each(pos, n, &pci_devices, dev_chain)
c01086d8:	8b 45 e0             	mov    -0x20(%ebp),%eax
c01086db:	89 45 e4             	mov    %eax,-0x1c(%ebp)
c01086de:	8b 45 e0             	mov    -0x20(%ebp),%eax
c01086e1:	8b 40 04             	mov    0x4(%eax),%eax
c01086e4:	89 45 d0             	mov    %eax,-0x30(%ebp)
c01086e7:	8b 45 d0             	mov    -0x30(%ebp),%eax
c01086ea:	89 45 e0             	mov    %eax,-0x20(%ebp)
c01086ed:	8b 45 e4             	mov    -0x1c(%ebp),%eax
c01086f0:	3d 00 b5 d0 c0       	cmp    $0xc0d0b500,%eax
c01086f5:	0f 85 bd fe ff ff    	jne    c01085b8 <pci_print_device+0x2b>
        }
    }
}
c01086fb:	90                   	nop
c01086fc:	90                   	nop
c01086fd:	8d 65 f4             	lea    -0xc(%ebp),%esp
c0108700:	5b                   	pop    %ebx
c0108701:	5e                   	pop    %esi
c0108702:	5f                   	pop    %edi
c0108703:	5d                   	pop    %ebp
c0108704:	c3                   	ret    

c0108705 <pci_bar_sizing>:

size_t pci_bar_sizing(struct pci_device* dev, uint32_t* bar_out, uint32_t bar_num)
{
c0108705:	55                   	push   %ebp
c0108706:	89 e5                	mov    %esp,%ebp
c0108708:	83 ec 18             	sub    $0x18,%esp
    pci_reg_t bar = pci_read_cspace(dev->cspace_base, PCI_REG_BAR(bar_num));
c010870b:	8b 45 10             	mov    0x10(%ebp),%eax
c010870e:	83 c0 03             	add    $0x3,%eax
c0108711:	c1 e0 02             	shl    $0x2,%eax
c0108714:	89 c2                	mov    %eax,%edx
c0108716:	8b 45 08             	mov    0x8(%ebp),%eax
c0108719:	8b 40 10             	mov    0x10(%eax),%eax
c010871c:	83 ec 08             	sub    $0x8,%esp
c010871f:	52                   	push   %edx
c0108720:	50                   	push   %eax
c0108721:	e8 17 02 00 00       	call   c010893d <pci_read_cspace>
c0108726:	83 c4 10             	add    $0x10,%esp
c0108729:	89 45 f0             	mov    %eax,-0x10(%ebp)
    if (!bar) {
c010872c:	83 7d f0 00          	cmpl   $0x0,-0x10(%ebp)
c0108730:	75 10                	jne    c0108742 <pci_bar_sizing+0x3d>
        *bar_out = 0;
c0108732:	8b 45 0c             	mov    0xc(%ebp),%eax
c0108735:	c7 00 00 00 00 00    	movl   $0x0,(%eax)
        return 0;
c010873b:	b8 00 00 00 00       	mov    $0x0,%eax
c0108740:	eb 5f                	jmp    c01087a1 <pci_bar_sizing+0x9c>
    }

    pci_write_cspace(dev->cspace_base, PCI_REG_BAR(bar_num), 0xffffffff);
c0108742:	8b 45 10             	mov    0x10(%ebp),%eax
c0108745:	83 c0 03             	add    $0x3,%eax
c0108748:	c1 e0 02             	shl    $0x2,%eax
c010874b:	89 c2                	mov    %eax,%edx
c010874d:	8b 45 08             	mov    0x8(%ebp),%eax
c0108750:	8b 40 10             	mov    0x10(%eax),%eax
c0108753:	83 ec 04             	sub    $0x4,%esp
c0108756:	6a ff                	push   $0xffffffff
c0108758:	52                   	push   %edx
c0108759:	50                   	push   %eax
c010875a:	e8 07 02 00 00       	call   c0108966 <pci_write_cspace>
c010875f:	83 c4 10             	add    $0x10,%esp
    pci_reg_t sized =
      pci_read_cspace(dev->cspace_base, PCI_REG_BAR(bar_num)) & ~0x1;
c0108762:	8b 45 10             	mov    0x10(%ebp),%eax
c0108765:	83 c0 03             	add    $0x3,%eax
c0108768:	c1 e0 02             	shl    $0x2,%eax
c010876b:	89 c2                	mov    %eax,%edx
c010876d:	8b 45 08             	mov    0x8(%ebp),%eax
c0108770:	8b 40 10             	mov    0x10(%eax),%eax
c0108773:	83 ec 08             	sub    $0x8,%esp
c0108776:	52                   	push   %edx
c0108777:	50                   	push   %eax
c0108778:	e8 c0 01 00 00       	call   c010893d <pci_read_cspace>
c010877d:	83 c4 10             	add    $0x10,%esp
    pci_reg_t sized =
c0108780:	83 e0 fe             	and    $0xfffffffe,%eax
c0108783:	89 45 f4             	mov    %eax,-0xc(%ebp)
    if (PCI_BAR_MMIO(bar)) {
c0108786:	8b 45 f0             	mov    -0x10(%ebp),%eax
c0108789:	83 e0 01             	and    $0x1,%eax
c010878c:	85 c0                	test   %eax,%eax
c010878e:	75 04                	jne    c0108794 <pci_bar_sizing+0x8f>
        sized = PCI_BAR_ADDR_MM(sized);
c0108790:	83 65 f4 f0          	andl   $0xfffffff0,-0xc(%ebp)
    }
    *bar_out = bar;
c0108794:	8b 45 0c             	mov    0xc(%ebp),%eax
c0108797:	8b 55 f0             	mov    -0x10(%ebp),%edx
c010879a:	89 10                	mov    %edx,(%eax)
    return ~sized + 1;
c010879c:	8b 45 f4             	mov    -0xc(%ebp),%eax
c010879f:	f7 d8                	neg    %eax
}
c01087a1:	c9                   	leave  
c01087a2:	c3                   	ret    

c01087a3 <pci_setup_msi>:

void pci_setup_msi(struct pci_device* device, int vector)
{
c01087a3:	55                   	push   %ebp
c01087a4:	89 e5                	mov    %esp,%ebp
c01087a6:	83 ec 18             	sub    $0x18,%esp
    // Dest: APIC#0, Physical Destination, No redirection
    uint32_t msi_addr = (__APIC_BASE_PADDR | 0x8);
c01087a9:	c7 45 f4 08 00 e0 fe 	movl   $0xfee00008,-0xc(%ebp)

    // Edge trigger, Fixed delivery
    uint32_t msi_data = vector;
c01087b0:	8b 45 0c             	mov    0xc(%ebp),%eax
c01087b3:	89 45 f0             	mov    %eax,-0x10(%ebp)

    pci_write_cspace(
      device->cspace_base, PCI_MSI_ADDR(device->msi_loc), msi_addr);
c01087b6:	8b 45 08             	mov    0x8(%ebp),%eax
c01087b9:	8b 40 14             	mov    0x14(%eax),%eax
c01087bc:	83 c0 04             	add    $0x4,%eax
    pci_write_cspace(
c01087bf:	89 c2                	mov    %eax,%edx
c01087c1:	8b 45 08             	mov    0x8(%ebp),%eax
c01087c4:	8b 40 10             	mov    0x10(%eax),%eax
c01087c7:	83 ec 04             	sub    $0x4,%esp
c01087ca:	ff 75 f4             	push   -0xc(%ebp)
c01087cd:	52                   	push   %edx
c01087ce:	50                   	push   %eax
c01087cf:	e8 92 01 00 00       	call   c0108966 <pci_write_cspace>
c01087d4:	83 c4 10             	add    $0x10,%esp
    pci_write_cspace(
c01087d7:	8b 45 f0             	mov    -0x10(%ebp),%eax
c01087da:	0f b7 d0             	movzwl %ax,%edx
      device->cspace_base, PCI_MSI_DATA(device->msi_loc), msi_data & 0xffff);
c01087dd:	8b 45 08             	mov    0x8(%ebp),%eax
c01087e0:	8b 40 14             	mov    0x14(%eax),%eax
c01087e3:	83 c0 08             	add    $0x8,%eax
    pci_write_cspace(
c01087e6:	89 c1                	mov    %eax,%ecx
c01087e8:	8b 45 08             	mov    0x8(%ebp),%eax
c01087eb:	8b 40 10             	mov    0x10(%eax),%eax
c01087ee:	83 ec 04             	sub    $0x4,%esp
c01087f1:	52                   	push   %edx
c01087f2:	51                   	push   %ecx
c01087f3:	50                   	push   %eax
c01087f4:	e8 6d 01 00 00       	call   c0108966 <pci_write_cspace>
c01087f9:	83 c4 10             	add    $0x10,%esp

    pci_reg_t reg1 = pci_read_cspace(device->cspace_base, device->msi_loc);
c01087fc:	8b 45 08             	mov    0x8(%ebp),%eax
c01087ff:	8b 40 14             	mov    0x14(%eax),%eax
c0108802:	89 c2                	mov    %eax,%edx
c0108804:	8b 45 08             	mov    0x8(%ebp),%eax
c0108807:	8b 40 10             	mov    0x10(%eax),%eax
c010880a:	83 ec 08             	sub    $0x8,%esp
c010880d:	52                   	push   %edx
c010880e:	50                   	push   %eax
c010880f:	e8 29 01 00 00       	call   c010893d <pci_read_cspace>
c0108814:	83 c4 10             	add    $0x10,%esp
c0108817:	89 45 ec             	mov    %eax,-0x14(%ebp)

    // manipulate the MSI_CTRL to allow device using MSI to request service.
    reg1 = ((((reg1 >> 16) & ~0x70) | 0x1) << 16) | (reg1 & 0xffff);
c010881a:	8b 45 ec             	mov    -0x14(%ebp),%eax
c010881d:	25 ff ff 8e ff       	and    $0xff8effff,%eax
c0108822:	0d 00 00 01 00       	or     $0x10000,%eax
c0108827:	89 45 ec             	mov    %eax,-0x14(%ebp)
    pci_write_cspace(device->cspace_base, device->msi_loc, reg1);
c010882a:	8b 45 08             	mov    0x8(%ebp),%eax
c010882d:	8b 40 14             	mov    0x14(%eax),%eax
c0108830:	89 c2                	mov    %eax,%edx
c0108832:	8b 45 08             	mov    0x8(%ebp),%eax
c0108835:	8b 40 10             	mov    0x10(%eax),%eax
c0108838:	83 ec 04             	sub    $0x4,%esp
c010883b:	ff 75 ec             	push   -0x14(%ebp)
c010883e:	52                   	push   %edx
c010883f:	50                   	push   %eax
c0108840:	e8 21 01 00 00       	call   c0108966 <pci_write_cspace>
c0108845:	83 c4 10             	add    $0x10,%esp
}
c0108848:	90                   	nop
c0108849:	c9                   	leave  
c010884a:	c3                   	ret    

c010884b <pci_get_device_by_id>:

struct pci_device* pci_get_device_by_id(uint16_t vendorId, uint16_t deviceId)
{
c010884b:	55                   	push   %ebp
c010884c:	89 e5                	mov    %esp,%ebp
c010884e:	83 ec 28             	sub    $0x28,%esp
c0108851:	8b 55 08             	mov    0x8(%ebp),%edx
c0108854:	8b 45 0c             	mov    0xc(%ebp),%eax
c0108857:	66 89 55 dc          	mov    %dx,-0x24(%ebp)
c010885b:	66 89 45 d8          	mov    %ax,-0x28(%ebp)
    uint32_t dev_info = vendorId | (deviceId << 16);
c010885f:	0f b7 55 dc          	movzwl -0x24(%ebp),%edx
c0108863:	0f b7 45 d8          	movzwl -0x28(%ebp),%eax
c0108867:	c1 e0 10             	shl    $0x10,%eax
c010886a:	09 d0                	or     %edx,%eax
c010886c:	89 45 f4             	mov    %eax,-0xc(%ebp)
    struct pci_device *pos, *n;
    llist_for_each(pos, n, &pci_devices, dev_chain)
c010886f:	a1 04 b5 d0 c0       	mov    0xc0d0b504,%eax
c0108874:	89 45 f0             	mov    %eax,-0x10(%ebp)
c0108877:	8b 45 f0             	mov    -0x10(%ebp),%eax
c010887a:	89 45 fc             	mov    %eax,-0x4(%ebp)
c010887d:	8b 45 fc             	mov    -0x4(%ebp),%eax
c0108880:	8b 40 04             	mov    0x4(%eax),%eax
c0108883:	89 45 ec             	mov    %eax,-0x14(%ebp)
c0108886:	8b 45 ec             	mov    -0x14(%ebp),%eax
c0108889:	89 45 f8             	mov    %eax,-0x8(%ebp)
c010888c:	eb 25                	jmp    c01088b3 <pci_get_device_by_id+0x68>
    {
        if (pos->device_info == dev_info) {
c010888e:	8b 45 fc             	mov    -0x4(%ebp),%eax
c0108891:	8b 40 08             	mov    0x8(%eax),%eax
c0108894:	39 45 f4             	cmp    %eax,-0xc(%ebp)
c0108897:	75 05                	jne    c010889e <pci_get_device_by_id+0x53>
            return pos;
c0108899:	8b 45 fc             	mov    -0x4(%ebp),%eax
c010889c:	eb 24                	jmp    c01088c2 <pci_get_device_by_id+0x77>
    llist_for_each(pos, n, &pci_devices, dev_chain)
c010889e:	8b 45 f8             	mov    -0x8(%ebp),%eax
c01088a1:	89 45 fc             	mov    %eax,-0x4(%ebp)
c01088a4:	8b 45 f8             	mov    -0x8(%ebp),%eax
c01088a7:	8b 40 04             	mov    0x4(%eax),%eax
c01088aa:	89 45 e8             	mov    %eax,-0x18(%ebp)
c01088ad:	8b 45 e8             	mov    -0x18(%ebp),%eax
c01088b0:	89 45 f8             	mov    %eax,-0x8(%ebp)
c01088b3:	8b 45 fc             	mov    -0x4(%ebp),%eax
c01088b6:	3d 00 b5 d0 c0       	cmp    $0xc0d0b500,%eax
c01088bb:	75 d1                	jne    c010888e <pci_get_device_by_id+0x43>
        }
    }

    return NULL;
c01088bd:	b8 00 00 00 00       	mov    $0x0,%eax
}
c01088c2:	c9                   	leave  
c01088c3:	c3                   	ret    

c01088c4 <pci_get_device_by_class>:

struct pci_device* pci_get_device_by_class(uint32_t mclass)
{
c01088c4:	55                   	push   %ebp
c01088c5:	89 e5                	mov    %esp,%ebp
c01088c7:	83 ec 20             	sub    $0x20,%esp
    struct pci_device *pos, *n;
    llist_for_each(pos, n, &pci_devices, dev_chain)
c01088ca:	a1 04 b5 d0 c0       	mov    0xc0d0b504,%eax
c01088cf:	89 45 f4             	mov    %eax,-0xc(%ebp)
c01088d2:	8b 45 f4             	mov    -0xc(%ebp),%eax
c01088d5:	89 45 fc             	mov    %eax,-0x4(%ebp)
c01088d8:	8b 45 fc             	mov    -0x4(%ebp),%eax
c01088db:	8b 40 04             	mov    0x4(%eax),%eax
c01088de:	89 45 f0             	mov    %eax,-0x10(%ebp)
c01088e1:	8b 45 f0             	mov    -0x10(%ebp),%eax
c01088e4:	89 45 f8             	mov    %eax,-0x8(%ebp)
c01088e7:	eb 28                	jmp    c0108911 <pci_get_device_by_class+0x4d>
    {
        if (PCI_DEV_CLASS(pos->class_info) == mclass) {
c01088e9:	8b 45 fc             	mov    -0x4(%ebp),%eax
c01088ec:	8b 40 0c             	mov    0xc(%eax),%eax
c01088ef:	c1 e8 08             	shr    $0x8,%eax
c01088f2:	39 45 08             	cmp    %eax,0x8(%ebp)
c01088f5:	75 05                	jne    c01088fc <pci_get_device_by_class+0x38>
            return pos;
c01088f7:	8b 45 fc             	mov    -0x4(%ebp),%eax
c01088fa:	eb 24                	jmp    c0108920 <pci_get_device_by_class+0x5c>
    llist_for_each(pos, n, &pci_devices, dev_chain)
c01088fc:	8b 45 f8             	mov    -0x8(%ebp),%eax
c01088ff:	89 45 fc             	mov    %eax,-0x4(%ebp)
c0108902:	8b 45 f8             	mov    -0x8(%ebp),%eax
c0108905:	8b 40 04             	mov    0x4(%eax),%eax
c0108908:	89 45 ec             	mov    %eax,-0x14(%ebp)
c010890b:	8b 45 ec             	mov    -0x14(%ebp),%eax
c010890e:	89 45 f8             	mov    %eax,-0x8(%ebp)
c0108911:	8b 45 fc             	mov    -0x4(%ebp),%eax
c0108914:	3d 00 b5 d0 c0       	cmp    $0xc0d0b500,%eax
c0108919:	75 ce                	jne    c01088e9 <pci_get_device_by_class+0x25>
        }
    }

    return NULL;
c010891b:	b8 00 00 00 00       	mov    $0x0,%eax
}
c0108920:	c9                   	leave  
c0108921:	c3                   	ret    

c0108922 <pci_init>:

void pci_init()
{
c0108922:	55                   	push   %ebp
c0108923:	89 e5                	mov    %esp,%ebp
c0108925:	83 ec 08             	sub    $0x8,%esp
    llist_init_head(&pci_devices);
c0108928:	68 00 b5 d0 c0       	push   $0xc0d0b500
c010892d:	e8 dc f9 ff ff       	call   c010830e <llist_init_head>
c0108932:	83 c4 04             	add    $0x4,%esp
    // Otherwise, fallback to use legacy PCI 3.0 method.
    pci_probe();
c0108935:	e8 77 fb ff ff       	call   c01084b1 <pci_probe>
}
c010893a:	90                   	nop
c010893b:	c9                   	leave  
c010893c:	c3                   	ret    

c010893d <pci_read_cspace>:

pci_reg_t pci_read_cspace(uint32_t base, int offset)
{
c010893d:	55                   	push   %ebp
c010893e:	89 e5                	mov    %esp,%ebp
    io_outl(PCI_CONFIG_ADDR, base | (offset & ~0x3));
c0108940:	8b 45 0c             	mov    0xc(%ebp),%eax
c0108943:	83 e0 fc             	and    $0xfffffffc,%eax
c0108946:	0b 45 08             	or     0x8(%ebp),%eax
c0108949:	50                   	push   %eax
c010894a:	68 f8 0c 00 00       	push   $0xcf8
c010894f:	e8 85 f9 ff ff       	call   c01082d9 <io_outl>
c0108954:	83 c4 08             	add    $0x8,%esp
    return io_inl(PCI_CONFIG_DATA);
c0108957:	68 fc 0c 00 00       	push   $0xcfc
c010895c:	e8 64 f9 ff ff       	call   c01082c5 <io_inl>
c0108961:	83 c4 04             	add    $0x4,%esp
}
c0108964:	c9                   	leave  
c0108965:	c3                   	ret    

c0108966 <pci_write_cspace>:

void pci_write_cspace(uint32_t base, int offset, pci_reg_t data)
{
c0108966:	55                   	push   %ebp
c0108967:	89 e5                	mov    %esp,%ebp
    io_outl(PCI_CONFIG_ADDR, base | (offset & ~0x3));
c0108969:	8b 45 0c             	mov    0xc(%ebp),%eax
c010896c:	83 e0 fc             	and    $0xfffffffc,%eax
c010896f:	0b 45 08             	or     0x8(%ebp),%eax
c0108972:	50                   	push   %eax
c0108973:	68 f8 0c 00 00       	push   $0xcf8
c0108978:	e8 5c f9 ff ff       	call   c01082d9 <io_outl>
c010897d:	83 c4 08             	add    $0x8,%esp
    io_outl(PCI_CONFIG_DATA, data);
c0108980:	ff 75 10             	push   0x10(%ebp)
c0108983:	68 fc 0c 00 00       	push   $0xcfc
c0108988:	e8 4c f9 ff ff       	call   c01082d9 <io_outl>
c010898d:	83 c4 08             	add    $0x8,%esp
c0108990:	90                   	nop
c0108991:	c9                   	leave  
c0108992:	c3                   	ret    

c0108993 <__get_cpuid_max>:
   pointer is non-null, then first four bytes of the signature
   (as found in ebx register) are returned in location pointed by sig.  */

static __inline unsigned int
__get_cpuid_max (unsigned int __ext, unsigned int *__sig)
{
c0108993:	55                   	push   %ebp
c0108994:	89 e5                	mov    %esp,%ebp
c0108996:	53                   	push   %ebx
c0108997:	83 ec 10             	sub    $0x10,%esp
  unsigned int __eax, __ebx, __ecx, __edx;

#ifndef __x86_64__
  /* See if we can use cpuid.  On AMD64 we always can.  */
#if __GNUC__ >= 3
  __asm__ ("pushf{l|d}\n\t"
c010899a:	9c                   	pushf  
c010899b:	9c                   	pushf  
c010899c:	5a                   	pop    %edx
c010899d:	89 d0                	mov    %edx,%eax
c010899f:	81 f2 00 00 20 00    	xor    $0x200000,%edx
c01089a5:	52                   	push   %edx
c01089a6:	9d                   	popf   
c01089a7:	9c                   	pushf  
c01089a8:	5a                   	pop    %edx
c01089a9:	9d                   	popf   
c01089aa:	89 55 f8             	mov    %edx,-0x8(%ebp)
c01089ad:	89 45 f4             	mov    %eax,-0xc(%ebp)
	   "popfl\n\t"
	   : "=&r" (__eax), "=&r" (__ebx)
	   : "i" (0x00200000));
#endif

  if (!((__eax ^ __ebx) & 0x00200000))
c01089b0:	8b 45 f8             	mov    -0x8(%ebp),%eax
c01089b3:	33 45 f4             	xor    -0xc(%ebp),%eax
c01089b6:	25 00 00 20 00       	and    $0x200000,%eax
c01089bb:	85 c0                	test   %eax,%eax
c01089bd:	75 07                	jne    c01089c6 <__get_cpuid_max+0x33>
    return 0;
c01089bf:	b8 00 00 00 00       	mov    $0x0,%eax
c01089c4:	eb 30                	jmp    c01089f6 <__get_cpuid_max+0x63>
#endif

  /* Host supports cpuid.  Return highest supported cpuid input value.  */
  __cpuid (__ext, __eax, __ebx, __ecx, __edx);
c01089c6:	8b 45 08             	mov    0x8(%ebp),%eax
c01089c9:	b9 00 00 00 00       	mov    $0x0,%ecx
c01089ce:	ba 00 00 00 00       	mov    $0x0,%edx
c01089d3:	89 cb                	mov    %ecx,%ebx
c01089d5:	89 d1                	mov    %edx,%ecx
c01089d7:	0f a2                	cpuid  
c01089d9:	89 45 f8             	mov    %eax,-0x8(%ebp)
c01089dc:	89 5d f4             	mov    %ebx,-0xc(%ebp)
c01089df:	89 4d f0             	mov    %ecx,-0x10(%ebp)
c01089e2:	89 55 ec             	mov    %edx,-0x14(%ebp)

  if (__sig)
c01089e5:	83 7d 0c 00          	cmpl   $0x0,0xc(%ebp)
c01089e9:	74 08                	je     c01089f3 <__get_cpuid_max+0x60>
    *__sig = __ebx;
c01089eb:	8b 45 0c             	mov    0xc(%ebp),%eax
c01089ee:	8b 55 f4             	mov    -0xc(%ebp),%edx
c01089f1:	89 10                	mov    %edx,(%eax)

  return __eax;
c01089f3:	8b 45 f8             	mov    -0x8(%ebp),%eax
}
c01089f6:	8b 5d fc             	mov    -0x4(%ebp),%ebx
c01089f9:	c9                   	leave  
c01089fa:	c3                   	ret    

c01089fb <__get_cpuid>:

static __inline int
__get_cpuid (unsigned int __leaf,
	     unsigned int *__eax, unsigned int *__ebx,
	     unsigned int *__ecx, unsigned int *__edx)
{
c01089fb:	55                   	push   %ebp
c01089fc:	89 e5                	mov    %esp,%ebp
c01089fe:	56                   	push   %esi
c01089ff:	53                   	push   %ebx
c0108a00:	83 ec 10             	sub    $0x10,%esp
  unsigned int __ext = __leaf & 0x80000000;
c0108a03:	8b 45 08             	mov    0x8(%ebp),%eax
c0108a06:	25 00 00 00 80       	and    $0x80000000,%eax
c0108a0b:	89 45 f4             	mov    %eax,-0xc(%ebp)
  unsigned int __maxlevel = __get_cpuid_max (__ext, 0);
c0108a0e:	6a 00                	push   $0x0
c0108a10:	ff 75 f4             	push   -0xc(%ebp)
c0108a13:	e8 7b ff ff ff       	call   c0108993 <__get_cpuid_max>
c0108a18:	83 c4 08             	add    $0x8,%esp
c0108a1b:	89 45 f0             	mov    %eax,-0x10(%ebp)

  if (__maxlevel == 0 || __maxlevel < __leaf)
c0108a1e:	83 7d f0 00          	cmpl   $0x0,-0x10(%ebp)
c0108a22:	74 08                	je     c0108a2c <__get_cpuid+0x31>
c0108a24:	8b 45 f0             	mov    -0x10(%ebp),%eax
c0108a27:	3b 45 08             	cmp    0x8(%ebp),%eax
c0108a2a:	73 07                	jae    c0108a33 <__get_cpuid+0x38>
    return 0;
c0108a2c:	b8 00 00 00 00       	mov    $0x0,%eax
c0108a31:	eb 2c                	jmp    c0108a5f <__get_cpuid+0x64>

  __cpuid (__leaf, *__eax, *__ebx, *__ecx, *__edx);
c0108a33:	8b 45 08             	mov    0x8(%ebp),%eax
c0108a36:	b9 00 00 00 00       	mov    $0x0,%ecx
c0108a3b:	ba 00 00 00 00       	mov    $0x0,%edx
c0108a40:	89 cb                	mov    %ecx,%ebx
c0108a42:	89 d1                	mov    %edx,%ecx
c0108a44:	0f a2                	cpuid  
c0108a46:	8b 75 0c             	mov    0xc(%ebp),%esi
c0108a49:	89 06                	mov    %eax,(%esi)
c0108a4b:	8b 45 10             	mov    0x10(%ebp),%eax
c0108a4e:	89 18                	mov    %ebx,(%eax)
c0108a50:	8b 45 14             	mov    0x14(%ebp),%eax
c0108a53:	89 08                	mov    %ecx,(%eax)
c0108a55:	8b 45 18             	mov    0x18(%ebp),%eax
c0108a58:	89 10                	mov    %edx,(%eax)
  return 1;
c0108a5a:	b8 01 00 00 00       	mov    $0x1,%eax
}
c0108a5f:	8d 65 f8             	lea    -0x8(%ebp),%esp
c0108a62:	5b                   	pop    %ebx
c0108a63:	5e                   	pop    %esi
c0108a64:	5d                   	pop    %ebp
c0108a65:	c3                   	ret    

c0108a66 <cpu_get_model>:
#include <kernel/cpu/cpu.h>
#include <stdint.h>
#include <cpuid.h>

void cpu_get_model(char* model_out) {
c0108a66:	55                   	push   %ebp
c0108a67:	89 e5                	mov    %esp,%ebp
c0108a69:	83 ec 20             	sub    $0x20,%esp
    uint32_t* out = (uint32_t*)model_out;
c0108a6c:	8b 45 08             	mov    0x8(%ebp),%eax
c0108a6f:	89 45 fc             	mov    %eax,-0x4(%ebp)
    reg32 eax, ebx, edx, ecx;
    
    __get_cpuid(0, &eax, &ebx, &ecx, &edx);
c0108a72:	8d 45 f0             	lea    -0x10(%ebp),%eax
c0108a75:	50                   	push   %eax
c0108a76:	8d 45 ec             	lea    -0x14(%ebp),%eax
c0108a79:	50                   	push   %eax
c0108a7a:	8d 45 f4             	lea    -0xc(%ebp),%eax
c0108a7d:	50                   	push   %eax
c0108a7e:	8d 45 f8             	lea    -0x8(%ebp),%eax
c0108a81:	50                   	push   %eax
c0108a82:	6a 00                	push   $0x0
c0108a84:	e8 72 ff ff ff       	call   c01089fb <__get_cpuid>
c0108a89:	83 c4 14             	add    $0x14,%esp

    out[0] = ebx;
c0108a8c:	8b 55 f4             	mov    -0xc(%ebp),%edx
c0108a8f:	8b 45 fc             	mov    -0x4(%ebp),%eax
c0108a92:	89 10                	mov    %edx,(%eax)
    out[1] = edx;
c0108a94:	8b 45 fc             	mov    -0x4(%ebp),%eax
c0108a97:	8d 50 04             	lea    0x4(%eax),%edx
c0108a9a:	8b 45 f0             	mov    -0x10(%ebp),%eax
c0108a9d:	89 02                	mov    %eax,(%edx)
    out[2] = ecx;
c0108a9f:	8b 45 fc             	mov    -0x4(%ebp),%eax
c0108aa2:	8d 50 08             	lea    0x8(%eax),%edx
c0108aa5:	8b 45 ec             	mov    -0x14(%ebp),%eax
c0108aa8:	89 02                	mov    %eax,(%edx)
    model_out[12] = '\0';
c0108aaa:	8b 45 08             	mov    0x8(%ebp),%eax
c0108aad:	83 c0 0c             	add    $0xc,%eax
c0108ab0:	c6 00 00             	movb   $0x0,(%eax)
}
c0108ab3:	90                   	nop
c0108ab4:	c9                   	leave  
c0108ab5:	c3                   	ret    

c0108ab6 <cpu_brand_string_supported>:

#define BRAND_LEAF 0x80000000UL

int cpu_brand_string_supported() {
c0108ab6:	55                   	push   %ebp
c0108ab7:	89 e5                	mov    %esp,%ebp
c0108ab9:	83 ec 10             	sub    $0x10,%esp
    reg32 supported = __get_cpuid_max(BRAND_LEAF, 0);
c0108abc:	6a 00                	push   $0x0
c0108abe:	68 00 00 00 80       	push   $0x80000000
c0108ac3:	e8 cb fe ff ff       	call   c0108993 <__get_cpuid_max>
c0108ac8:	83 c4 08             	add    $0x8,%esp
c0108acb:	89 45 fc             	mov    %eax,-0x4(%ebp)
    return (supported >= 0x80000004UL);
c0108ace:	81 7d fc 03 00 00 80 	cmpl   $0x80000003,-0x4(%ebp)
c0108ad5:	0f 97 c0             	seta   %al
c0108ad8:	0f b6 c0             	movzbl %al,%eax
}
c0108adb:	c9                   	leave  
c0108adc:	c3                   	ret    

c0108add <cpu_get_brand>:

void cpu_get_brand(char* brand_out) {
c0108add:	55                   	push   %ebp
c0108ade:	89 e5                	mov    %esp,%ebp
c0108ae0:	83 ec 20             	sub    $0x20,%esp
    if(!cpu_brand_string_supported()) {
c0108ae3:	e8 ce ff ff ff       	call   c0108ab6 <cpu_brand_string_supported>
c0108ae8:	85 c0                	test   %eax,%eax
c0108aea:	75 0f                	jne    c0108afb <cpu_get_brand+0x1e>
        brand_out[0] = '?';
c0108aec:	8b 45 08             	mov    0x8(%ebp),%eax
c0108aef:	c6 00 3f             	movb   $0x3f,(%eax)
        brand_out[1] = '\0';
c0108af2:	8b 45 08             	mov    0x8(%ebp),%eax
c0108af5:	83 c0 01             	add    $0x1,%eax
c0108af8:	c6 00 00             	movb   $0x0,(%eax)
    }
    uint32_t* out = (uint32_t*) brand_out;
c0108afb:	8b 45 08             	mov    0x8(%ebp),%eax
c0108afe:	89 45 f4             	mov    %eax,-0xc(%ebp)
    reg32 eax, ebx, edx, ecx;
    for (uint32_t i = 2, j = 0; i < 5; i++)
c0108b01:	c7 45 fc 02 00 00 00 	movl   $0x2,-0x4(%ebp)
c0108b08:	c7 45 f8 00 00 00 00 	movl   $0x0,-0x8(%ebp)
c0108b0f:	e9 83 00 00 00       	jmp    c0108b97 <cpu_get_brand+0xba>
    {
        __get_cpuid(BRAND_LEAF + i, &eax, &ebx, &ecx, &edx);
c0108b14:	8b 45 fc             	mov    -0x4(%ebp),%eax
c0108b17:	8d 90 00 00 00 80    	lea    -0x80000000(%eax),%edx
c0108b1d:	8d 45 e8             	lea    -0x18(%ebp),%eax
c0108b20:	50                   	push   %eax
c0108b21:	8d 45 e4             	lea    -0x1c(%ebp),%eax
c0108b24:	50                   	push   %eax
c0108b25:	8d 45 ec             	lea    -0x14(%ebp),%eax
c0108b28:	50                   	push   %eax
c0108b29:	8d 45 f0             	lea    -0x10(%ebp),%eax
c0108b2c:	50                   	push   %eax
c0108b2d:	52                   	push   %edx
c0108b2e:	e8 c8 fe ff ff       	call   c01089fb <__get_cpuid>
c0108b33:	83 c4 14             	add    $0x14,%esp
        out[j] = eax;
c0108b36:	8b 45 f8             	mov    -0x8(%ebp),%eax
c0108b39:	8d 14 85 00 00 00 00 	lea    0x0(,%eax,4),%edx
c0108b40:	8b 45 f4             	mov    -0xc(%ebp),%eax
c0108b43:	01 c2                	add    %eax,%edx
c0108b45:	8b 45 f0             	mov    -0x10(%ebp),%eax
c0108b48:	89 02                	mov    %eax,(%edx)
        out[j + 1] = ebx;
c0108b4a:	8b 45 f8             	mov    -0x8(%ebp),%eax
c0108b4d:	83 c0 01             	add    $0x1,%eax
c0108b50:	8d 14 85 00 00 00 00 	lea    0x0(,%eax,4),%edx
c0108b57:	8b 45 f4             	mov    -0xc(%ebp),%eax
c0108b5a:	01 c2                	add    %eax,%edx
c0108b5c:	8b 45 ec             	mov    -0x14(%ebp),%eax
c0108b5f:	89 02                	mov    %eax,(%edx)
        out[j + 2] = ecx;
c0108b61:	8b 45 f8             	mov    -0x8(%ebp),%eax
c0108b64:	83 c0 02             	add    $0x2,%eax
c0108b67:	8d 14 85 00 00 00 00 	lea    0x0(,%eax,4),%edx
c0108b6e:	8b 45 f4             	mov    -0xc(%ebp),%eax
c0108b71:	01 c2                	add    %eax,%edx
c0108b73:	8b 45 e4             	mov    -0x1c(%ebp),%eax
c0108b76:	89 02                	mov    %eax,(%edx)
        out[j + 3] = edx;
c0108b78:	8b 45 f8             	mov    -0x8(%ebp),%eax
c0108b7b:	83 c0 03             	add    $0x3,%eax
c0108b7e:	8d 14 85 00 00 00 00 	lea    0x0(,%eax,4),%edx
c0108b85:	8b 45 f4             	mov    -0xc(%ebp),%eax
c0108b88:	01 c2                	add    %eax,%edx
c0108b8a:	8b 45 e8             	mov    -0x18(%ebp),%eax
c0108b8d:	89 02                	mov    %eax,(%edx)
        j+=4;
c0108b8f:	83 45 f8 04          	addl   $0x4,-0x8(%ebp)
    for (uint32_t i = 2, j = 0; i < 5; i++)
c0108b93:	83 45 fc 01          	addl   $0x1,-0x4(%ebp)
c0108b97:	83 7d fc 04          	cmpl   $0x4,-0x4(%ebp)
c0108b9b:	0f 86 73 ff ff ff    	jbe    c0108b14 <cpu_get_brand+0x37>
    }
    brand_out[48] = '\0';
c0108ba1:	8b 45 08             	mov    0x8(%ebp),%eax
c0108ba4:	83 c0 30             	add    $0x30,%eax
c0108ba7:	c6 00 00             	movb   $0x0,(%eax)
}
c0108baa:	90                   	nop
c0108bab:	c9                   	leave  
c0108bac:	c3                   	ret    

c0108bad <cpu_r_cr0>:

reg32 cpu_r_cr0() {
c0108bad:	55                   	push   %ebp
c0108bae:	89 e5                	mov    %esp,%ebp
    asm volatile ("mov %cr0, %eax");
c0108bb0:	0f 20 c0             	mov    %cr0,%eax
}
c0108bb3:	90                   	nop
c0108bb4:	5d                   	pop    %ebp
c0108bb5:	c3                   	ret    

c0108bb6 <cpu_r_cr2>:

reg32 cpu_r_cr2() {
c0108bb6:	55                   	push   %ebp
c0108bb7:	89 e5                	mov    %esp,%ebp
    asm volatile ("mov %cr2, %eax");
c0108bb9:	0f 20 d0             	mov    %cr2,%eax
}
c0108bbc:	90                   	nop
c0108bbd:	5d                   	pop    %ebp
c0108bbe:	c3                   	ret    

c0108bbf <cpu_r_cr3>:

reg32 cpu_r_cr3() {
c0108bbf:	55                   	push   %ebp
c0108bc0:	89 e5                	mov    %esp,%ebp
    asm volatile ("mov %cr3, %eax");
c0108bc2:	0f 20 d8             	mov    %cr3,%eax
}
c0108bc5:	90                   	nop
c0108bc6:	5d                   	pop    %ebp
c0108bc7:	c3                   	ret    

c0108bc8 <cpu_w_cr0>:

void cpu_w_cr0(reg32 v) {
c0108bc8:	55                   	push   %ebp
c0108bc9:	89 e5                	mov    %esp,%ebp
    asm volatile (
c0108bcb:	8b 45 08             	mov    0x8(%ebp),%eax
c0108bce:	0f 22 c0             	mov    %eax,%cr0
        "mov %0, %%cr0"
        :: "r"(v)
    );
}
c0108bd1:	90                   	nop
c0108bd2:	5d                   	pop    %ebp
c0108bd3:	c3                   	ret    

c0108bd4 <cpu_w_cr2>:

void cpu_w_cr2(reg32 v) {
c0108bd4:	55                   	push   %ebp
c0108bd5:	89 e5                	mov    %esp,%ebp
    asm volatile (
c0108bd7:	8b 45 08             	mov    0x8(%ebp),%eax
c0108bda:	0f 22 d0             	mov    %eax,%cr2
        "mov %0, %%cr2"
        :: "r"(v)
    );
}
c0108bdd:	90                   	nop
c0108bde:	5d                   	pop    %ebp
c0108bdf:	c3                   	ret    

c0108be0 <cpu_w_cr3>:

void cpu_w_cr3(reg32 v) {
c0108be0:	55                   	push   %ebp
c0108be1:	89 e5                	mov    %esp,%ebp
    asm volatile (
c0108be3:	8b 45 08             	mov    0x8(%ebp),%eax
c0108be6:	0f 22 d8             	mov    %eax,%cr3
        "mov %0, %%cr3"
        :: "r"(v)
    );
}
c0108be9:	90                   	nop
c0108bea:	5d                   	pop    %ebp
c0108beb:	c3                   	ret    

c0108bec <_set_gdt_entry>:
uint64_t _gdt[GDT_ENTRY];
uint16_t _gdt_limit = sizeof(_gdt) - 1;

extern struct x86_tss _tss;

void _set_gdt_entry(uint32_t index, uint32_t base, uint32_t limit, uint32_t flags) {
c0108bec:	55                   	push   %ebp
c0108bed:	89 e5                	mov    %esp,%ebp
c0108bef:	57                   	push   %edi
c0108bf0:	56                   	push   %esi
c0108bf1:	53                   	push   %ebx
c0108bf2:	83 ec 0c             	sub    $0xc,%esp
    _gdt[index] = SEG_BASE_H(base) | flags | SEG_LIM_H(limit) | SEG_BASE_M(base);
c0108bf5:	8b 45 0c             	mov    0xc(%ebp),%eax
c0108bf8:	25 00 00 00 ff       	and    $0xff000000,%eax
c0108bfd:	0b 45 14             	or     0x14(%ebp),%eax
c0108c00:	89 c2                	mov    %eax,%edx
c0108c02:	8b 45 10             	mov    0x10(%ebp),%eax
c0108c05:	25 00 00 0f 00       	and    $0xf0000,%eax
c0108c0a:	09 c2                	or     %eax,%edx
c0108c0c:	8b 45 0c             	mov    0xc(%ebp),%eax
c0108c0f:	c1 e8 10             	shr    $0x10,%eax
c0108c12:	0f b6 c0             	movzbl %al,%eax
c0108c15:	09 d0                	or     %edx,%eax
c0108c17:	ba 00 00 00 00       	mov    $0x0,%edx
c0108c1c:	8b 75 08             	mov    0x8(%ebp),%esi
c0108c1f:	89 04 f5 20 b5 d0 c0 	mov    %eax,-0x3f2f4ae0(,%esi,8)
c0108c26:	89 14 f5 24 b5 d0 c0 	mov    %edx,-0x3f2f4adc(,%esi,8)
    _gdt[index] <<= 32;
c0108c2d:	8b 45 08             	mov    0x8(%ebp),%eax
c0108c30:	8b 14 c5 24 b5 d0 c0 	mov    -0x3f2f4adc(,%eax,8),%edx
c0108c37:	8b 04 c5 20 b5 d0 c0 	mov    -0x3f2f4ae0(,%eax,8),%eax
c0108c3e:	89 c2                	mov    %eax,%edx
c0108c40:	b8 00 00 00 00       	mov    $0x0,%eax
c0108c45:	8b 75 08             	mov    0x8(%ebp),%esi
c0108c48:	89 04 f5 20 b5 d0 c0 	mov    %eax,-0x3f2f4ae0(,%esi,8)
c0108c4f:	89 14 f5 24 b5 d0 c0 	mov    %edx,-0x3f2f4adc(,%esi,8)
    _gdt[index] |= SEG_BASE_L(base) | SEG_LIM_L(limit);
c0108c56:	8b 45 08             	mov    0x8(%ebp),%eax
c0108c59:	8b 14 c5 24 b5 d0 c0 	mov    -0x3f2f4adc(,%eax,8),%edx
c0108c60:	8b 04 c5 20 b5 d0 c0 	mov    -0x3f2f4ae0(,%eax,8),%eax
c0108c67:	8b 75 0c             	mov    0xc(%ebp),%esi
c0108c6a:	89 f7                	mov    %esi,%edi
c0108c6c:	c1 e7 10             	shl    $0x10,%edi
c0108c6f:	8b 75 10             	mov    0x10(%ebp),%esi
c0108c72:	0f b7 f6             	movzwl %si,%esi
c0108c75:	09 fe                	or     %edi,%esi
c0108c77:	bf 00 00 00 00       	mov    $0x0,%edi
c0108c7c:	89 45 e8             	mov    %eax,-0x18(%ebp)
c0108c7f:	89 55 ec             	mov    %edx,-0x14(%ebp)
c0108c82:	09 f0                	or     %esi,%eax
c0108c84:	89 c1                	mov    %eax,%ecx
c0108c86:	8b 45 ec             	mov    -0x14(%ebp),%eax
c0108c89:	09 f8                	or     %edi,%eax
c0108c8b:	89 c3                	mov    %eax,%ebx
c0108c8d:	8b 45 08             	mov    0x8(%ebp),%eax
c0108c90:	89 0c c5 20 b5 d0 c0 	mov    %ecx,-0x3f2f4ae0(,%eax,8)
c0108c97:	89 1c c5 24 b5 d0 c0 	mov    %ebx,-0x3f2f4adc(,%eax,8)
}
c0108c9e:	90                   	nop
c0108c9f:	83 c4 0c             	add    $0xc,%esp
c0108ca2:	5b                   	pop    %ebx
c0108ca3:	5e                   	pop    %esi
c0108ca4:	5f                   	pop    %edi
c0108ca5:	5d                   	pop    %ebp
c0108ca6:	c3                   	ret    

c0108ca7 <_init_gdt>:
// 
void
_init_gdt() {
c0108ca7:	55                   	push   %ebp
c0108ca8:	89 e5                	mov    %esp,%ebp
    _set_gdt_entry(0, 0, 0, 0);
c0108caa:	6a 00                	push   $0x0
c0108cac:	6a 00                	push   $0x0
c0108cae:	6a 00                	push   $0x0
c0108cb0:	6a 00                	push   $0x0
c0108cb2:	e8 35 ff ff ff       	call   c0108bec <_set_gdt_entry>
c0108cb7:	83 c4 10             	add    $0x10,%esp
    _set_gdt_entry(1, 0, 0xfffff, SEG_R0_CODE);
c0108cba:	68 00 9a c0 00       	push   $0xc09a00
c0108cbf:	68 ff ff 0f 00       	push   $0xfffff
c0108cc4:	6a 00                	push   $0x0
c0108cc6:	6a 01                	push   $0x1
c0108cc8:	e8 1f ff ff ff       	call   c0108bec <_set_gdt_entry>
c0108ccd:	83 c4 10             	add    $0x10,%esp
    _set_gdt_entry(2, 0, 0xfffff, SEG_R0_DATA);
c0108cd0:	68 00 92 c0 00       	push   $0xc09200
c0108cd5:	68 ff ff 0f 00       	push   $0xfffff
c0108cda:	6a 00                	push   $0x0
c0108cdc:	6a 02                	push   $0x2
c0108cde:	e8 09 ff ff ff       	call   c0108bec <_set_gdt_entry>
c0108ce3:	83 c4 10             	add    $0x10,%esp
    _set_gdt_entry(3, 0, 0xfffff, SEG_R3_CODE);
c0108ce6:	68 00 fa c0 00       	push   $0xc0fa00
c0108ceb:	68 ff ff 0f 00       	push   $0xfffff
c0108cf0:	6a 00                	push   $0x0
c0108cf2:	6a 03                	push   $0x3
c0108cf4:	e8 f3 fe ff ff       	call   c0108bec <_set_gdt_entry>
c0108cf9:	83 c4 10             	add    $0x10,%esp
    _set_gdt_entry(4, 0, 0xfffff, SEG_R3_DATA);
c0108cfc:	68 00 f2 c0 00       	push   $0xc0f200
c0108d01:	68 ff ff 0f 00       	push   $0xfffff
c0108d06:	6a 00                	push   $0x0
c0108d08:	6a 04                	push   $0x4
c0108d0a:	e8 dd fe ff ff       	call   c0108bec <_set_gdt_entry>
c0108d0f:	83 c4 10             	add    $0x10,%esp
    _set_gdt_entry(5, &_tss, sizeof(struct x86_tss) - 1, SEG_TSS);
c0108d12:	b8 20 d0 d0 c0       	mov    $0xc0d0d020,%eax
c0108d17:	68 00 89 00 00       	push   $0x8900
c0108d1c:	6a 67                	push   $0x67
c0108d1e:	50                   	push   %eax
c0108d1f:	6a 05                	push   $0x5
c0108d21:	e8 c6 fe ff ff       	call   c0108bec <_set_gdt_entry>
c0108d26:	83 c4 10             	add    $0x10,%esp
c0108d29:	90                   	nop
c0108d2a:	c9                   	leave  
c0108d2b:	c3                   	ret    

c0108d2c <tss_update_esp>:
    .esp0 = KSTACK_START,
    .ss0  = KDATA_SEG,
    .__padding = {0}
};

void tss_update_esp(uint32_t esp0) {
c0108d2c:	55                   	push   %ebp
c0108d2d:	89 e5                	mov    %esp,%ebp
    _tss.esp0 = esp0;
c0108d2f:	8b 45 08             	mov    0x8(%ebp),%eax
c0108d32:	a3 24 d0 d0 c0       	mov    %eax,0xc0d0d024
c0108d37:	90                   	nop
c0108d38:	5d                   	pop    %ebp
c0108d39:	c3                   	ret    

c0108d3a <_set_idt_entry>:
#define IDT_ENTRY 256

uint64_t _idt[IDT_ENTRY];
uint16_t _idt_limit = sizeof(_idt) - 1;

void _set_idt_entry(uint32_t vector, uint16_t seg_selector, void (*isr)(), uint8_t dpl) {
c0108d3a:	55                   	push   %ebp
c0108d3b:	89 e5                	mov    %esp,%ebp
c0108d3d:	57                   	push   %edi
c0108d3e:	56                   	push   %esi
c0108d3f:	53                   	push   %ebx
c0108d40:	83 ec 24             	sub    $0x24,%esp
c0108d43:	8b 45 0c             	mov    0xc(%ebp),%eax
c0108d46:	8b 55 14             	mov    0x14(%ebp),%edx
c0108d49:	66 89 45 dc          	mov    %ax,-0x24(%ebp)
c0108d4d:	89 d0                	mov    %edx,%eax
c0108d4f:	88 45 d8             	mov    %al,-0x28(%ebp)
    uintptr_t offset = (uintptr_t)isr;
c0108d52:	8b 45 10             	mov    0x10(%ebp),%eax
c0108d55:	89 45 ec             	mov    %eax,-0x14(%ebp)
    _idt[vector] = (offset & 0xffff0000) | IDT_ATTR(dpl);
c0108d58:	8b 45 ec             	mov    -0x14(%ebp),%eax
c0108d5b:	66 b8 00 00          	mov    $0x0,%ax
c0108d5f:	89 c2                	mov    %eax,%edx
c0108d61:	0f b6 45 d8          	movzbl -0x28(%ebp),%eax
c0108d65:	c1 e0 0d             	shl    $0xd,%eax
c0108d68:	25 00 60 00 00       	and    $0x6000,%eax
c0108d6d:	09 d0                	or     %edx,%eax
c0108d6f:	80 cc 8e             	or     $0x8e,%ah
c0108d72:	ba 00 00 00 00       	mov    $0x0,%edx
c0108d77:	8b 75 08             	mov    0x8(%ebp),%esi
c0108d7a:	89 04 f5 60 b5 d0 c0 	mov    %eax,-0x3f2f4aa0(,%esi,8)
c0108d81:	89 14 f5 64 b5 d0 c0 	mov    %edx,-0x3f2f4a9c(,%esi,8)
    _idt[vector] <<= 32;
c0108d88:	8b 45 08             	mov    0x8(%ebp),%eax
c0108d8b:	8b 14 c5 64 b5 d0 c0 	mov    -0x3f2f4a9c(,%eax,8),%edx
c0108d92:	8b 04 c5 60 b5 d0 c0 	mov    -0x3f2f4aa0(,%eax,8),%eax
c0108d99:	89 c2                	mov    %eax,%edx
c0108d9b:	b8 00 00 00 00       	mov    $0x0,%eax
c0108da0:	8b 75 08             	mov    0x8(%ebp),%esi
c0108da3:	89 04 f5 60 b5 d0 c0 	mov    %eax,-0x3f2f4aa0(,%esi,8)
c0108daa:	89 14 f5 64 b5 d0 c0 	mov    %edx,-0x3f2f4a9c(,%esi,8)
    _idt[vector] |= (seg_selector << 16) | (offset & 0x0000ffff);
c0108db1:	8b 45 08             	mov    0x8(%ebp),%eax
c0108db4:	8b 14 c5 64 b5 d0 c0 	mov    -0x3f2f4a9c(,%eax,8),%edx
c0108dbb:	8b 04 c5 60 b5 d0 c0 	mov    -0x3f2f4aa0(,%eax,8),%eax
c0108dc2:	0f b7 75 dc          	movzwl -0x24(%ebp),%esi
c0108dc6:	c1 e6 10             	shl    $0x10,%esi
c0108dc9:	89 f7                	mov    %esi,%edi
c0108dcb:	8b 75 ec             	mov    -0x14(%ebp),%esi
c0108dce:	0f b7 f6             	movzwl %si,%esi
c0108dd1:	09 fe                	or     %edi,%esi
c0108dd3:	bf 00 00 00 00       	mov    $0x0,%edi
c0108dd8:	89 45 d0             	mov    %eax,-0x30(%ebp)
c0108ddb:	89 55 d4             	mov    %edx,-0x2c(%ebp)
c0108dde:	09 f0                	or     %esi,%eax
c0108de0:	89 c1                	mov    %eax,%ecx
c0108de2:	8b 45 d4             	mov    -0x2c(%ebp),%eax
c0108de5:	09 f8                	or     %edi,%eax
c0108de7:	89 c3                	mov    %eax,%ebx
c0108de9:	8b 45 08             	mov    0x8(%ebp),%eax
c0108dec:	89 0c c5 60 b5 d0 c0 	mov    %ecx,-0x3f2f4aa0(,%eax,8)
c0108df3:	89 1c c5 64 b5 d0 c0 	mov    %ebx,-0x3f2f4a9c(,%eax,8)
}
c0108dfa:	90                   	nop
c0108dfb:	83 c4 24             	add    $0x24,%esp
c0108dfe:	5b                   	pop    %ebx
c0108dff:	5e                   	pop    %esi
c0108e00:	5f                   	pop    %edi
c0108e01:	5d                   	pop    %ebp
c0108e02:	c3                   	ret    

c0108e03 <_init_idt>:

void _init_idt()
{
c0108e03:	55                   	push   %ebp
c0108e04:	89 e5                	mov    %esp,%ebp
c0108e06:	83 ec 10             	sub    $0x10,%esp
    _set_idt_entry(FAULT_DIVISION_ERROR, 0x08, &divide_error, 0);
c0108e09:	6a 00                	push   $0x0
c0108e0b:	68 4f 82 10 c0       	push   $0xc010824f
c0108e10:	6a 08                	push   $0x8
c0108e12:	6a 00                	push   $0x0
c0108e14:	e8 21 ff ff ff       	call   c0108d3a <_set_idt_entry>
c0108e19:	83 c4 10             	add    $0x10,%esp
    _set_idt_entry(FAULT_TRAP_DEBUG_EXCEPTION, 0x08, &debug, 0);
c0108e1c:	6a 00                	push   $0x0
c0108e1e:	68 56 82 10 c0       	push   $0xc0108256
c0108e23:	6a 08                	push   $0x8
c0108e25:	6a 01                	push   $0x1
c0108e27:	e8 0e ff ff ff       	call   c0108d3a <_set_idt_entry>
c0108e2c:	83 c4 10             	add    $0x10,%esp
    _set_idt_entry(INT_NMI, 0x08, &nmi, 0);
c0108e2f:	6a 00                	push   $0x0
c0108e31:	68 5d 82 10 c0       	push   $0xc010825d
c0108e36:	6a 08                	push   $0x8
c0108e38:	6a 02                	push   $0x2
c0108e3a:	e8 fb fe ff ff       	call   c0108d3a <_set_idt_entry>
c0108e3f:	83 c4 10             	add    $0x10,%esp
    _set_idt_entry(TRAP_BREAKPOINT, 0x08, &int3, 0);
c0108e42:	6a 00                	push   $0x0
c0108e44:	68 64 82 10 c0       	push   $0xc0108264
c0108e49:	6a 08                	push   $0x8
c0108e4b:	6a 03                	push   $0x3
c0108e4d:	e8 e8 fe ff ff       	call   c0108d3a <_set_idt_entry>
c0108e52:	83 c4 10             	add    $0x10,%esp
    _set_idt_entry(TRAP_OVERFLOW, 0x08, &overflow, 0);
c0108e55:	6a 00                	push   $0x0
c0108e57:	68 6b 82 10 c0       	push   $0xc010826b
c0108e5c:	6a 08                	push   $0x8
c0108e5e:	6a 04                	push   $0x4
c0108e60:	e8 d5 fe ff ff       	call   c0108d3a <_set_idt_entry>
c0108e65:	83 c4 10             	add    $0x10,%esp
    _set_idt_entry(FAULT_BOUND_EXCEED, 0x08, &bounds, 0);
c0108e68:	6a 00                	push   $0x0
c0108e6a:	68 75 82 10 c0       	push   $0xc0108275
c0108e6f:	6a 08                	push   $0x8
c0108e71:	6a 05                	push   $0x5
c0108e73:	e8 c2 fe ff ff       	call   c0108d3a <_set_idt_entry>
c0108e78:	83 c4 10             	add    $0x10,%esp
    _set_idt_entry(FAULT_INVALID_OPCODE, 0x08, &invalid_op, 0);
c0108e7b:	6a 00                	push   $0x0
c0108e7d:	68 7f 82 10 c0       	push   $0xc010827f
c0108e82:	6a 08                	push   $0x8
c0108e84:	6a 06                	push   $0x6
c0108e86:	e8 af fe ff ff       	call   c0108d3a <_set_idt_entry>
c0108e8b:	83 c4 10             	add    $0x10,%esp
    //_set_idt_entry(FAULT_NO_MATH_PROCESSOR, 0x08, &device_not_available, 0);
    //_set_idt_entry(ABORT_DOUBLE_FAULT, 0x08, &double_fault, 0);
    _set_idt_entry(FAULT_RESERVED_0, 0x08, &coprocessor_segment_overrun, 0);
c0108e8e:	6a 00                	push   $0x0
c0108e90:	68 89 82 10 c0       	push   $0xc0108289
c0108e95:	6a 08                	push   $0x8
c0108e97:	6a 09                	push   $0x9
c0108e99:	e8 9c fe ff ff       	call   c0108d3a <_set_idt_entry>
c0108e9e:	83 c4 10             	add    $0x10,%esp
    _set_idt_entry(FAULT_INVALID_TSS, 0x08, &invalid_TSS, 0);
c0108ea1:	6a 00                	push   $0x0
c0108ea3:	68 9d 82 10 c0       	push   $0xc010829d
c0108ea8:	6a 08                	push   $0x8
c0108eaa:	6a 0a                	push   $0xa
c0108eac:	e8 89 fe ff ff       	call   c0108d3a <_set_idt_entry>
c0108eb1:	83 c4 10             	add    $0x10,%esp
    _set_idt_entry(FAULT_SEG_NOT_PRESENT, 0x08, &segment_not_present, 0);
c0108eb4:	6a 00                	push   $0x0
c0108eb6:	68 a7 82 10 c0       	push   $0xc01082a7
c0108ebb:	6a 08                	push   $0x8
c0108ebd:	6a 0b                	push   $0xb
c0108ebf:	e8 76 fe ff ff       	call   c0108d3a <_set_idt_entry>
c0108ec4:	83 c4 10             	add    $0x10,%esp
    _set_idt_entry(FAULT_STACK_SEG_FAULT, 0x08, &stack_segment, 0);
c0108ec7:	6a 00                	push   $0x0
c0108ec9:	68 b1 82 10 c0       	push   $0xc01082b1
c0108ece:	6a 08                	push   $0x8
c0108ed0:	6a 0c                	push   $0xc
c0108ed2:	e8 63 fe ff ff       	call   c0108d3a <_set_idt_entry>
c0108ed7:	83 c4 10             	add    $0x10,%esp
    _set_idt_entry(FAULT_GENERAL_PROTECTION, 0x08, &general_protection, 0);
c0108eda:	6a 00                	push   $0x0
c0108edc:	68 bb 82 10 c0       	push   $0xc01082bb
c0108ee1:	6a 08                	push   $0x8
c0108ee3:	6a 0d                	push   $0xd
c0108ee5:	e8 50 fe ff ff       	call   c0108d3a <_set_idt_entry>
c0108eea:	83 c4 10             	add    $0x10,%esp
    _set_idt_entry(FAULT_PAGE_FAULT, 0x08, &page_fault, 0);
c0108eed:	6a 00                	push   $0x0
c0108eef:	68 bd 71 10 c0       	push   $0xc01071bd
c0108ef4:	6a 08                	push   $0x8
c0108ef6:	6a 0e                	push   $0xe
c0108ef8:	e8 3d fe ff ff       	call   c0108d3a <_set_idt_entry>
c0108efd:	83 c4 10             	add    $0x10,%esp
    _set_idt_entry(FAULT_RESERVED_1, 0x08, &reserved, 0);
c0108f00:	6a 00                	push   $0x0
c0108f02:	68 93 82 10 c0       	push   $0xc0108293
c0108f07:	6a 08                	push   $0x8
c0108f09:	6a 0f                	push   $0xf
c0108f0b:	e8 2a fe ff ff       	call   c0108d3a <_set_idt_entry>
c0108f10:	83 c4 10             	add    $0x10,%esp
    //_set_idt_entry(FAULT_X87_FAULT, 0x08, coprocessor_error, 0);
    for (int i=17;i < 48;i++)
c0108f13:	c7 45 fc 11 00 00 00 	movl   $0x11,-0x4(%ebp)
c0108f1a:	eb 19                	jmp    c0108f35 <_init_idt+0x132>
		  _set_idt_entry(i, 0x08, &reserved, 0);
c0108f1c:	8b 45 fc             	mov    -0x4(%ebp),%eax
c0108f1f:	6a 00                	push   $0x0
c0108f21:	68 93 82 10 c0       	push   $0xc0108293
c0108f26:	6a 08                	push   $0x8
c0108f28:	50                   	push   %eax
c0108f29:	e8 0c fe ff ff       	call   c0108d3a <_set_idt_entry>
c0108f2e:	83 c4 10             	add    $0x10,%esp
    for (int i=17;i < 48;i++)
c0108f31:	83 45 fc 01          	addl   $0x1,-0x4(%ebp)
c0108f35:	83 7d fc 2f          	cmpl   $0x2f,-0x4(%ebp)
c0108f39:	7e e1                	jle    c0108f1c <_init_idt+0x119>
    //_set_idt_entry(45, 0x08, irq13, 0);
    _set_idt_entry(MELOX_SYS_CALL, 0x08, &intr_syscall_handler, 3);
c0108f3b:	6a 03                	push   $0x3
c0108f3d:	68 bf 81 10 c0       	push   $0xc01081bf
c0108f42:	6a 08                	push   $0x8
c0108f44:	68 80 00 00 00       	push   $0x80
c0108f49:	e8 ec fd ff ff       	call   c0108d3a <_set_idt_entry>
c0108f4e:	83 c4 10             	add    $0x10,%esp
c0108f51:	90                   	nop
c0108f52:	c9                   	leave  
c0108f53:	c3                   	ret    

c0108f54 <_kernel_start>:
c0108f54:	e8 4e fd ff ff       	call   c0108ca7 <_init_gdt>
c0108f59:	68 20 b5 d0 c0       	push   $0xc0d0b520
c0108f5e:	66 ff 35 00 d0 d0 c0 	pushw  0xc0d0d000
c0108f65:	0f 01 14 24          	lgdtl  (%esp)
c0108f69:	66 b9 10 00          	mov    $0x10,%cx
c0108f6d:	8e c1                	mov    %ecx,%es
c0108f6f:	8e d9                	mov    %ecx,%ds
c0108f71:	8e e1                	mov    %ecx,%fs
c0108f73:	8e e9                	mov    %ecx,%gs
c0108f75:	8e d1                	mov    %ecx,%ss
c0108f77:	66 6a 08             	pushw  $0x8
c0108f7a:	68 80 8f 10 c0       	push   $0xc0108f80
c0108f7f:	cb                   	lret   

c0108f80 <_after_gdt>:
c0108f80:	c7 04 24 00 10 10 00 	movl   $0x101000,(%esp)
c0108f87:	e8 b2 d2 ff ff       	call   c010623e <_vir_kernel_init>
c0108f8c:	83 ec 06             	sub    $0x6,%esp
c0108f8f:	c7 44 24 02 60 b5 d0 	movl   $0xc0d0b560,0x2(%esp)
c0108f96:	c0 
c0108f97:	66 a1 88 d0 d0 c0    	mov    0xc0d0d088,%ax
c0108f9d:	66 89 04 24          	mov    %ax,(%esp)
c0108fa1:	0f 01 1c 24          	lidtl  (%esp)
c0108fa5:	66 b8 28 00          	mov    $0x28,%ax
c0108fa9:	0f 00 d8             	ltr    %ax
c0108fac:	83 c4 06             	add    $0x6,%esp
c0108faf:	e8 f1 d5 ff ff       	call   c01065a5 <_kernel_main>

c0108fb4 <j_>:
c0108fb4:	f4                   	hlt    
c0108fb5:	eb fd                	jmp    c0108fb4 <j_>

c0108fb7 <io_inb>:
{
c0108fb7:	55                   	push   %ebp
c0108fb8:	89 e5                	mov    %esp,%ebp
c0108fba:	83 ec 10             	sub    $0x10,%esp
    asm volatile("inb %w1,%0" : "=a"(data) : "d"(port));
c0108fbd:	8b 45 08             	mov    0x8(%ebp),%eax
c0108fc0:	89 c2                	mov    %eax,%edx
c0108fc2:	ec                   	in     (%dx),%al
c0108fc3:	88 45 ff             	mov    %al,-0x1(%ebp)
    return data;
c0108fc6:	0f b6 45 ff          	movzbl -0x1(%ebp),%eax
}
c0108fca:	c9                   	leave  
c0108fcb:	c3                   	ret    

c0108fcc <io_outb>:
{
c0108fcc:	55                   	push   %ebp
c0108fcd:	89 e5                	mov    %esp,%ebp
c0108fcf:	83 ec 04             	sub    $0x4,%esp
c0108fd2:	8b 45 0c             	mov    0xc(%ebp),%eax
c0108fd5:	88 45 fc             	mov    %al,-0x4(%ebp)
    asm volatile("outb %0, %w1" : : "a"(data), "d"(port));
c0108fd8:	0f b6 45 fc          	movzbl -0x4(%ebp),%eax
c0108fdc:	8b 55 08             	mov    0x8(%ebp),%edx
c0108fdf:	ee                   	out    %al,(%dx)
}
c0108fe0:	90                   	nop
c0108fe1:	c9                   	leave  
c0108fe2:	c3                   	ret    

c0108fe3 <cpu_delay>:
static inline void cpu_delay(){
c0108fe3:	55                   	push   %ebp
c0108fe4:	89 e5                	mov    %esp,%ebp
c0108fe6:	83 ec 10             	sub    $0x10,%esp
    for(int i = 0; i < 3; i++);
c0108fe9:	c7 45 fc 00 00 00 00 	movl   $0x0,-0x4(%ebp)
c0108ff0:	eb 04                	jmp    c0108ff6 <cpu_delay+0x13>
c0108ff2:	83 45 fc 01          	addl   $0x1,-0x4(%ebp)
c0108ff6:	83 7d fc 02          	cmpl   $0x2,-0x4(%ebp)
c0108ffa:	7e f6                	jle    c0108ff2 <cpu_delay+0xf>
}
c0108ffc:	90                   	nop
c0108ffd:	90                   	nop
c0108ffe:	c9                   	leave  
c0108fff:	c3                   	ret    

c0109000 <init_8259>:
//other keys tmp do not hand
};
#endif

void init_8259()
{
c0109000:	55                   	push   %ebp
c0109001:	89 e5                	mov    %esp,%ebp
    asm volatile("cli");
c0109003:	fa                   	cli    

    //ICW1
    io_outb(0x20, 0x11);
c0109004:	6a 11                	push   $0x11
c0109006:	6a 20                	push   $0x20
c0109008:	e8 bf ff ff ff       	call   c0108fcc <io_outb>
c010900d:	83 c4 08             	add    $0x8,%esp
    cpu_delay();
c0109010:	e8 ce ff ff ff       	call   c0108fe3 <cpu_delay>
    io_outb(0xa0, 0x11);
c0109015:	6a 11                	push   $0x11
c0109017:	68 a0 00 00 00       	push   $0xa0
c010901c:	e8 ab ff ff ff       	call   c0108fcc <io_outb>
c0109021:	83 c4 08             	add    $0x8,%esp
    cpu_delay();
c0109024:	e8 ba ff ff ff       	call   c0108fe3 <cpu_delay>

    //ICW2
    io_outb(0x21, 0x20);
c0109029:	6a 20                	push   $0x20
c010902b:	6a 21                	push   $0x21
c010902d:	e8 9a ff ff ff       	call   c0108fcc <io_outb>
c0109032:	83 c4 08             	add    $0x8,%esp
    cpu_delay();
c0109035:	e8 a9 ff ff ff       	call   c0108fe3 <cpu_delay>
    io_outb(0xa1, 0x28);
c010903a:	6a 28                	push   $0x28
c010903c:	68 a1 00 00 00       	push   $0xa1
c0109041:	e8 86 ff ff ff       	call   c0108fcc <io_outb>
c0109046:	83 c4 08             	add    $0x8,%esp
    cpu_delay();
c0109049:	e8 95 ff ff ff       	call   c0108fe3 <cpu_delay>

    //ICW3
    io_outb(0x21, 0x04);
c010904e:	6a 04                	push   $0x4
c0109050:	6a 21                	push   $0x21
c0109052:	e8 75 ff ff ff       	call   c0108fcc <io_outb>
c0109057:	83 c4 08             	add    $0x8,%esp
    cpu_delay();
c010905a:	e8 84 ff ff ff       	call   c0108fe3 <cpu_delay>
    io_outb(0xa1, 0x02);
c010905f:	6a 02                	push   $0x2
c0109061:	68 a1 00 00 00       	push   $0xa1
c0109066:	e8 61 ff ff ff       	call   c0108fcc <io_outb>
c010906b:	83 c4 08             	add    $0x8,%esp
    cpu_delay();
c010906e:	e8 70 ff ff ff       	call   c0108fe3 <cpu_delay>

    //ICW4
    io_outb(0x21, 0x01);
c0109073:	6a 01                	push   $0x1
c0109075:	6a 21                	push   $0x21
c0109077:	e8 50 ff ff ff       	call   c0108fcc <io_outb>
c010907c:	83 c4 08             	add    $0x8,%esp
    cpu_delay();
c010907f:	e8 5f ff ff ff       	call   c0108fe3 <cpu_delay>
    io_outb(0xa1, 0x01);
c0109084:	6a 01                	push   $0x1
c0109086:	68 a1 00 00 00       	push   $0xa1
c010908b:	e8 3c ff ff ff       	call   c0108fcc <io_outb>
c0109090:	83 c4 08             	add    $0x8,%esp
    cpu_delay();
c0109093:	e8 4b ff ff ff       	call   c0108fe3 <cpu_delay>

    //OCW1
    io_outb(0x21, 0xff);
c0109098:	68 ff 00 00 00       	push   $0xff
c010909d:	6a 21                	push   $0x21
c010909f:	e8 28 ff ff ff       	call   c0108fcc <io_outb>
c01090a4:	83 c4 08             	add    $0x8,%esp
    cpu_delay();
c01090a7:	e8 37 ff ff ff       	call   c0108fe3 <cpu_delay>
    io_outb(0xa1, 0xff);
c01090ac:	68 ff 00 00 00       	push   $0xff
c01090b1:	68 a1 00 00 00       	push   $0xa1
c01090b6:	e8 11 ff ff ff       	call   c0108fcc <io_outb>
c01090bb:	83 c4 08             	add    $0x8,%esp

    asm volatile("sti");
c01090be:	fb                   	sti    
}
c01090bf:	90                   	nop
c01090c0:	c9                   	leave  
c01090c1:	c3                   	ret    

c01090c2 <ps2_post_cmd>:


static void ps2_post_cmd(uint8_t port, char cmd, uint16_t arg) {
c01090c2:	55                   	push   %ebp
c01090c3:	89 e5                	mov    %esp,%ebp
c01090c5:	83 ec 1c             	sub    $0x1c,%esp
c01090c8:	8b 4d 08             	mov    0x8(%ebp),%ecx
c01090cb:	8b 55 0c             	mov    0xc(%ebp),%edx
c01090ce:	8b 45 10             	mov    0x10(%ebp),%eax
c01090d1:	88 4d ec             	mov    %cl,-0x14(%ebp)
c01090d4:	88 55 e8             	mov    %dl,-0x18(%ebp)
c01090d7:	66 89 45 e4          	mov    %ax,-0x1c(%ebp)
    char result;
    // 等待PS/2输入缓冲区清空，这样我们才可以写入命令
    while((result = io_inb(PS2_PORT_CTRL_STATUS)) & PS2_STATUS_IFULL);
c01090db:	90                   	nop
c01090dc:	6a 64                	push   $0x64
c01090de:	e8 d4 fe ff ff       	call   c0108fb7 <io_inb>
c01090e3:	83 c4 04             	add    $0x4,%esp
c01090e6:	88 45 ff             	mov    %al,-0x1(%ebp)
c01090e9:	0f be 45 ff          	movsbl -0x1(%ebp),%eax
c01090ed:	83 e0 02             	and    $0x2,%eax
c01090f0:	85 c0                	test   %eax,%eax
c01090f2:	75 e8                	jne    c01090dc <ps2_post_cmd+0x1a>

    io_outb(port, cmd);
c01090f4:	0f b6 45 e8          	movzbl -0x18(%ebp),%eax
c01090f8:	0f b6 d0             	movzbl %al,%edx
c01090fb:	0f b6 45 ec          	movzbl -0x14(%ebp),%eax
c01090ff:	52                   	push   %edx
c0109100:	50                   	push   %eax
c0109101:	e8 c6 fe ff ff       	call   c0108fcc <io_outb>
c0109106:	83 c4 08             	add    $0x8,%esp
    if (!(arg & PS2_NO_ARG)) {
c0109109:	0f b7 45 e4          	movzwl -0x1c(%ebp),%eax
c010910d:	25 00 ff 00 00       	and    $0xff00,%eax
c0109112:	85 c0                	test   %eax,%eax
c0109114:	75 12                	jne    c0109128 <ps2_post_cmd+0x66>
        // 所有参数一律通过0x60传入。
        io_outb(PS2_PORT_ENC_CMDREG, (uint8_t)(arg & 0x00ff));
c0109116:	0f b7 45 e4          	movzwl -0x1c(%ebp),%eax
c010911a:	0f b6 c0             	movzbl %al,%eax
c010911d:	50                   	push   %eax
c010911e:	6a 60                	push   $0x60
c0109120:	e8 a7 fe ff ff       	call   c0108fcc <io_outb>
c0109125:	83 c4 08             	add    $0x8,%esp
    }
}
c0109128:	90                   	nop
c0109129:	c9                   	leave  
c010912a:	c3                   	ret    

c010912b <ps2_issue_cmd>:

static uint8_t ps2_issue_cmd(char cmd, uint16_t arg) {
c010912b:	55                   	push   %ebp
c010912c:	89 e5                	mov    %esp,%ebp
c010912e:	83 ec 18             	sub    $0x18,%esp
c0109131:	8b 55 08             	mov    0x8(%ebp),%edx
c0109134:	8b 45 0c             	mov    0xc(%ebp),%eax
c0109137:	88 55 ec             	mov    %dl,-0x14(%ebp)
c010913a:	66 89 45 e8          	mov    %ax,-0x18(%ebp)
    ps2_post_cmd(PS2_PORT_CTRL_CMDREG, cmd, arg);
c010913e:	0f b7 55 e8          	movzwl -0x18(%ebp),%edx
c0109142:	0f be 45 ec          	movsbl -0x14(%ebp),%eax
c0109146:	52                   	push   %edx
c0109147:	50                   	push   %eax
c0109148:	6a 64                	push   $0x64
c010914a:	e8 73 ff ff ff       	call   c01090c2 <ps2_post_cmd>
c010914f:	83 c4 0c             	add    $0xc,%esp

    char result;
    
    // 等待PS/2控制器返回。通过轮询（polling）状态寄存器的 bit 0
    // 如置位，则表明返回代码此时就在 0x60 IO口上等待读取。
    while(!((result = io_inb(PS2_PORT_CTRL_STATUS)) & PS2_STATUS_OFULL));
c0109152:	90                   	nop
c0109153:	6a 64                	push   $0x64
c0109155:	e8 5d fe ff ff       	call   c0108fb7 <io_inb>
c010915a:	83 c4 04             	add    $0x4,%esp
c010915d:	88 45 ff             	mov    %al,-0x1(%ebp)
c0109160:	0f be 45 ff          	movsbl -0x1(%ebp),%eax
c0109164:	83 e0 01             	and    $0x1,%eax
c0109167:	85 c0                	test   %eax,%eax
c0109169:	74 e8                	je     c0109153 <ps2_issue_cmd+0x28>

    return io_inb(PS2_PORT_ENC_CMDREG);
c010916b:	6a 60                	push   $0x60
c010916d:	e8 45 fe ff ff       	call   c0108fb7 <io_inb>
c0109172:	83 c4 04             	add    $0x4,%esp
}
c0109175:	c9                   	leave  
c0109176:	c3                   	ret    

c0109177 <ps2_issue_dev_cmd>:

static uint8_t ps2_issue_dev_cmd(char cmd, uint16_t arg) {
c0109177:	55                   	push   %ebp
c0109178:	89 e5                	mov    %esp,%ebp
c010917a:	83 ec 18             	sub    $0x18,%esp
c010917d:	8b 55 08             	mov    0x8(%ebp),%edx
c0109180:	8b 45 0c             	mov    0xc(%ebp),%eax
c0109183:	88 55 ec             	mov    %dl,-0x14(%ebp)
c0109186:	66 89 45 e8          	mov    %ax,-0x18(%ebp)
    ps2_post_cmd(PS2_PORT_ENC_CMDREG, cmd, arg);
c010918a:	0f b7 55 e8          	movzwl -0x18(%ebp),%edx
c010918e:	0f be 45 ec          	movsbl -0x14(%ebp),%eax
c0109192:	52                   	push   %edx
c0109193:	50                   	push   %eax
c0109194:	6a 60                	push   $0x60
c0109196:	e8 27 ff ff ff       	call   c01090c2 <ps2_post_cmd>
c010919b:	83 c4 0c             	add    $0xc,%esp

    char result;
    
    // 等待PS/2控制器返回。通过轮询（polling）状态寄存器的 bit 0
    // 如置位，则表明返回代码此时就在 0x60 IO口上等待读取。
    while(!((result = io_inb(PS2_PORT_CTRL_STATUS)) & PS2_STATUS_OFULL));
c010919e:	90                   	nop
c010919f:	6a 64                	push   $0x64
c01091a1:	e8 11 fe ff ff       	call   c0108fb7 <io_inb>
c01091a6:	83 c4 04             	add    $0x4,%esp
c01091a9:	88 45 ff             	mov    %al,-0x1(%ebp)
c01091ac:	0f be 45 ff          	movsbl -0x1(%ebp),%eax
c01091b0:	83 e0 01             	and    $0x1,%eax
c01091b3:	85 c0                	test   %eax,%eax
c01091b5:	74 e8                	je     c010919f <ps2_issue_dev_cmd+0x28>

    return io_inb(PS2_PORT_ENC_CMDREG);
c01091b7:	6a 60                	push   $0x60
c01091b9:	e8 f9 fd ff ff       	call   c0108fb7 <io_inb>
c01091be:	83 c4 04             	add    $0x4,%esp
}
c01091c1:	c9                   	leave  
c01091c2:	c3                   	ret    

c01091c3 <init_ps2k>:

void init_ps2k()
{
c01091c3:	55                   	push   %ebp
c01091c4:	89 e5                	mov    %esp,%ebp
c01091c6:	83 ec 18             	sub    $0x18,%esp
    asm volatile("cli");
c01091c9:	fa                   	cli    

     // 1、禁用任何的PS/2设备
    ps2_post_cmd(PS2_PORT_CTRL_CMDREG, PS2_CMD_PORT1_DISABLE, PS2_NO_ARG);
c01091ca:	68 00 ff 00 00       	push   $0xff00
c01091cf:	6a ad                	push   $0xffffffad
c01091d1:	6a 64                	push   $0x64
c01091d3:	e8 ea fe ff ff       	call   c01090c2 <ps2_post_cmd>
c01091d8:	83 c4 0c             	add    $0xc,%esp
    ps2_post_cmd(PS2_PORT_CTRL_CMDREG, PS2_CMD_PORT2_DISABLE, PS2_NO_ARG);
c01091db:	68 00 ff 00 00       	push   $0xff00
c01091e0:	6a a7                	push   $0xffffffa7
c01091e2:	6a 64                	push   $0x64
c01091e4:	e8 d9 fe ff ff       	call   c01090c2 <ps2_post_cmd>
c01091e9:	83 c4 0c             	add    $0xc,%esp
    
    // 2、清空控制器缓冲区
    io_inb(PS2_PORT_ENC_DATA);
c01091ec:	6a 60                	push   $0x60
c01091ee:	e8 c4 fd ff ff       	call   c0108fb7 <io_inb>
c01091f3:	83 c4 04             	add    $0x4,%esp

    char result;

    // 3、屏蔽所有PS/2设备（端口1&2）IRQ，并且禁用键盘键码转换功能
    result = ps2_issue_cmd(PS2_CMD_READ_CFG, PS2_NO_ARG);
c01091f6:	68 00 ff 00 00       	push   $0xff00
c01091fb:	6a 20                	push   $0x20
c01091fd:	e8 29 ff ff ff       	call   c010912b <ps2_issue_cmd>
c0109202:	83 c4 08             	add    $0x8,%esp
c0109205:	88 45 f7             	mov    %al,-0x9(%ebp)
    result = result & ~(PS2_CFG_P1INT | PS2_CFG_P2INT | PS2_CFG_TRANSLATION);
c0109208:	80 65 f7 bc          	andb   $0xbc,-0x9(%ebp)
    ps2_post_cmd(PS2_PORT_CTRL_CMDREG, PS2_CMD_WRITE_CFG, result);
c010920c:	66 0f be 45 f7       	movsbw -0x9(%ebp),%ax
c0109211:	0f b7 c0             	movzwl %ax,%eax
c0109214:	50                   	push   %eax
c0109215:	6a 60                	push   $0x60
c0109217:	6a 64                	push   $0x64
c0109219:	e8 a4 fe ff ff       	call   c01090c2 <ps2_post_cmd>
c010921e:	83 c4 0c             	add    $0xc,%esp

    // 4、控制器自检
    result = ps2_issue_cmd(PS2_CMD_SELFTEST, PS2_NO_ARG);
c0109221:	68 00 ff 00 00       	push   $0xff00
c0109226:	6a aa                	push   $0xffffffaa
c0109228:	e8 fe fe ff ff       	call   c010912b <ps2_issue_cmd>
c010922d:	83 c4 08             	add    $0x8,%esp
c0109230:	88 45 f7             	mov    %al,-0x9(%ebp)
    if (result != PS2_RESULT_TEST_OK) {
c0109233:	80 7d f7 55          	cmpb   $0x55,-0x9(%ebp)
c0109237:	74 12                	je     c010924b <init_ps2k+0x88>
        kprintf("Controller self-test failed.");
c0109239:	83 ec 0c             	sub    $0xc,%esp
c010923c:	68 1c e6 d0 c0       	push   $0xc0d0e61c
c0109241:	e8 7a 0f 00 00       	call   c010a1c0 <kprintf>
c0109246:	83 c4 10             	add    $0x10,%esp
        goto done;
c0109249:	eb 72                	jmp    c01092bd <init_ps2k+0xfa>
    }

    // 5、设备自检（端口1自检，通常是我们的键盘）
    result = ps2_issue_cmd(PS2_CMD_SELFTEST_PORT1, PS2_NO_ARG);
c010924b:	83 ec 08             	sub    $0x8,%esp
c010924e:	68 00 ff 00 00       	push   $0xff00
c0109253:	6a ab                	push   $0xffffffab
c0109255:	e8 d1 fe ff ff       	call   c010912b <ps2_issue_cmd>
c010925a:	83 c4 10             	add    $0x10,%esp
c010925d:	88 45 f7             	mov    %al,-0x9(%ebp)
    if (result != 0) {
c0109260:	80 7d f7 00          	cmpb   $0x0,-0x9(%ebp)
c0109264:	74 12                	je     c0109278 <init_ps2k+0xb5>
        kprintf("Interface test on port 1 failed.");
c0109266:	83 ec 0c             	sub    $0xc,%esp
c0109269:	68 3c e6 d0 c0       	push   $0xc0d0e63c
c010926e:	e8 4d 0f 00 00       	call   c010a1c0 <kprintf>
c0109273:	83 c4 10             	add    $0x10,%esp
        goto done;
c0109276:	eb 45                	jmp    c01092bd <init_ps2k+0xfa>
    }

    // 6、开启位于端口1的 IRQ，并启用端口1。不用理会端口2，那儿一般是鼠标。
    ps2_post_cmd(PS2_PORT_CTRL_CMDREG, PS2_CMD_PORT1_ENABLE, PS2_NO_ARG);
c0109278:	83 ec 04             	sub    $0x4,%esp
c010927b:	68 00 ff 00 00       	push   $0xff00
c0109280:	6a ae                	push   $0xffffffae
c0109282:	6a 64                	push   $0x64
c0109284:	e8 39 fe ff ff       	call   c01090c2 <ps2_post_cmd>
c0109289:	83 c4 10             	add    $0x10,%esp
    result = ps2_issue_cmd(PS2_CMD_READ_CFG, PS2_NO_ARG);
c010928c:	83 ec 08             	sub    $0x8,%esp
c010928f:	68 00 ff 00 00       	push   $0xff00
c0109294:	6a 20                	push   $0x20
c0109296:	e8 90 fe ff ff       	call   c010912b <ps2_issue_cmd>
c010929b:	83 c4 10             	add    $0x10,%esp
c010929e:	88 45 f7             	mov    %al,-0x9(%ebp)
    result = result | PS2_CFG_P1INT;
c01092a1:	80 4d f7 01          	orb    $0x1,-0x9(%ebp)
    ps2_post_cmd(PS2_PORT_CTRL_CMDREG, PS2_CMD_WRITE_CFG, result);
c01092a5:	66 0f be 45 f7       	movsbw -0x9(%ebp),%ax
c01092aa:	0f b7 c0             	movzwl %ax,%eax
c01092ad:	83 ec 04             	sub    $0x4,%esp
c01092b0:	50                   	push   %eax
c01092b1:	6a 60                	push   $0x60
c01092b3:	6a 64                	push   $0x64
c01092b5:	e8 08 fe ff ff       	call   c01090c2 <ps2_post_cmd>
c01092ba:	83 c4 10             	add    $0x10,%esp

    // 至此，PS/2控制器和设备已完成初始化，可以正常使用。

done:
    asm volatile("sti");
c01092bd:	fb                   	sti    
}
c01092be:	90                   	nop
c01092bf:	c9                   	leave  
c01092c0:	c3                   	ret    

c01092c1 <init_keyboard>:



void init_keyboard()
{
c01092c1:	55                   	push   %ebp
c01092c2:	89 e5                	mov    %esp,%ebp
c01092c4:	83 ec 18             	sub    $0x18,%esp
    asm("cli");
c01092c7:	fa                   	cli    
    init_8259();
c01092c8:	e8 33 fd ff ff       	call   c0109000 <init_8259>

    uint8_t result = io_inb(0x21);
c01092cd:	6a 21                	push   $0x21
c01092cf:	e8 e3 fc ff ff       	call   c0108fb7 <io_inb>
c01092d4:	83 c4 04             	add    $0x4,%esp
c01092d7:	88 45 f7             	mov    %al,-0x9(%ebp)
    io_outb(0x21, result & 0xfd);
c01092da:	0f b6 45 f7          	movzbl -0x9(%ebp),%eax
c01092de:	25 fd 00 00 00       	and    $0xfd,%eax
c01092e3:	50                   	push   %eax
c01092e4:	6a 21                	push   $0x21
c01092e6:	e8 e1 fc ff ff       	call   c0108fcc <io_outb>
c01092eb:	83 c4 08             	add    $0x8,%esp
    cpu_delay();
c01092ee:	e8 f0 fc ff ff       	call   c0108fe3 <cpu_delay>
    result = io_inb(0x21);
c01092f3:	6a 21                	push   $0x21
c01092f5:	e8 bd fc ff ff       	call   c0108fb7 <io_inb>
c01092fa:	83 c4 04             	add    $0x4,%esp
c01092fd:	88 45 f7             	mov    %al,-0x9(%ebp)

    init_ps2k();
c0109300:	e8 be fe ff ff       	call   c01091c3 <init_ps2k>
    
    _set_idt_entry(0x21, 0x08, &handle_keywords, 0);
c0109305:	6a 00                	push   $0x0
c0109307:	68 1c 93 10 c0       	push   $0xc010931c
c010930c:	6a 08                	push   $0x8
c010930e:	6a 21                	push   $0x21
c0109310:	e8 25 fa ff ff       	call   c0108d3a <_set_idt_entry>
c0109315:	83 c4 10             	add    $0x10,%esp
    asm("sti");
c0109318:	fb                   	sti    
}
c0109319:	90                   	nop
c010931a:	c9                   	leave  
c010931b:	c3                   	ret    

c010931c <handle_keywords>:

static void handle_keywords()
{
c010931c:	55                   	push   %ebp
c010931d:	89 e5                	mov    %esp,%ebp
c010931f:	83 ec 18             	sub    $0x18,%esp
    crtl_status, shift_status, alt_status, caps_lock_status, ext_scancode = 0;
c0109322:	c6 05 64 bd d0 c0 00 	movb   $0x0,0xc0d0bd64
    asm volatile("cli");
c0109329:	fa                   	cli    
    io_outb(0x61, 0x20);
c010932a:	6a 20                	push   $0x20
c010932c:	6a 61                	push   $0x61
c010932e:	e8 99 fc ff ff       	call   c0108fcc <io_outb>
c0109333:	83 c4 08             	add    $0x8,%esp
    uint8_t ctrl_down_last = crtl_status;
c0109336:	0f b6 05 60 bd d0 c0 	movzbl 0xc0d0bd60,%eax
c010933d:	88 45 f4             	mov    %al,-0xc(%ebp)
    uint8_t shift_down_last = shift_status;
c0109340:	0f b6 05 61 bd d0 c0 	movzbl 0xc0d0bd61,%eax
c0109347:	88 45 f3             	mov    %al,-0xd(%ebp)
    uint8_t caps_lock_last = caps_lock_status;
c010934a:	0f b6 05 63 bd d0 c0 	movzbl 0xc0d0bd63,%eax
c0109351:	88 45 f2             	mov    %al,-0xe(%ebp)

    uint8_t break_code;
    uint16_t scancode = io_inb(0x60);
c0109354:	6a 60                	push   $0x60
c0109356:	e8 5c fc ff ff       	call   c0108fb7 <io_inb>
c010935b:	83 c4 04             	add    $0x4,%esp
c010935e:	0f b6 c0             	movzbl %al,%eax
c0109361:	66 89 45 f6          	mov    %ax,-0xa(%ebp)
    
    if(scancode == 0xe0){
c0109365:	66 81 7d f6 e0 00    	cmpw   $0xe0,-0xa(%ebp)
c010936b:	75 25                	jne    c0109392 <handle_keywords+0x76>
        ext_scancode = 1;
c010936d:	c6 05 64 bd d0 c0 01 	movb   $0x1,0xc0d0bd64
        io_outb(0x20, 0x20);
c0109374:	6a 20                	push   $0x20
c0109376:	6a 20                	push   $0x20
c0109378:	e8 4f fc ff ff       	call   c0108fcc <io_outb>
c010937d:	83 c4 08             	add    $0x8,%esp
        io_outb(0x20, 0x20);
c0109380:	6a 20                	push   $0x20
c0109382:	6a 20                	push   $0x20
c0109384:	e8 43 fc ff ff       	call   c0108fcc <io_outb>
c0109389:	83 c4 08             	add    $0x8,%esp
        asm volatile("sti");
c010938c:	fb                   	sti    
        return;
c010938d:	e9 1a 02 00 00       	jmp    c01095ac <handle_keywords+0x290>
    }
    if(ext_scancode){
c0109392:	0f b6 05 64 bd d0 c0 	movzbl 0xc0d0bd64,%eax
c0109399:	84 c0                	test   %al,%al
c010939b:	74 0d                	je     c01093aa <handle_keywords+0x8e>
        scancode = ((0xe000) | scancode);
c010939d:	66 81 4d f6 00 e0    	orw    $0xe000,-0xa(%ebp)
        ext_scancode = 0;
c01093a3:	c6 05 64 bd d0 c0 00 	movb   $0x0,0xc0d0bd64
    }

    break_code = ((0x0080 & scancode) != 0);
c01093aa:	0f b7 45 f6          	movzwl -0xa(%ebp),%eax
c01093ae:	66 25 80 00          	and    $0x80,%ax
c01093b2:	66 85 c0             	test   %ax,%ax
c01093b5:	0f 95 c0             	setne  %al
c01093b8:	88 45 f1             	mov    %al,-0xf(%ebp)

    if(break_code)//tan qi ma
c01093bb:	80 7d f1 00          	cmpb   $0x0,-0xf(%ebp)
c01093bf:	74 6d                	je     c010942e <handle_keywords+0x112>
    {
        uint16_t make_code = (scancode & 0xff7f);
c01093c1:	0f b7 45 f6          	movzwl -0xa(%ebp),%eax
c01093c5:	24 7f                	and    $0x7f,%al
c01093c7:	66 89 45 ec          	mov    %ax,-0x14(%ebp)

        if(make_code == crtl_l_make || make_code == crtl_r_make)
c01093cb:	66 83 7d ec 1d       	cmpw   $0x1d,-0x14(%ebp)
c01093d0:	74 08                	je     c01093da <handle_keywords+0xbe>
c01093d2:	66 81 7d ec 1d e0    	cmpw   $0xe01d,-0x14(%ebp)
c01093d8:	75 09                	jne    c01093e3 <handle_keywords+0xc7>
        {
            crtl_status = 0;
c01093da:	c6 05 60 bd d0 c0 00 	movb   $0x0,0xc0d0bd60
c01093e1:	eb 2d                	jmp    c0109410 <handle_keywords+0xf4>
        }else if(make_code == shift_l_make || make_code == shift_r_make){
c01093e3:	66 83 7d ec 2a       	cmpw   $0x2a,-0x14(%ebp)
c01093e8:	74 07                	je     c01093f1 <handle_keywords+0xd5>
c01093ea:	66 83 7d ec 36       	cmpw   $0x36,-0x14(%ebp)
c01093ef:	75 09                	jne    c01093fa <handle_keywords+0xde>
            shift_status = 0;
c01093f1:	c6 05 61 bd d0 c0 00 	movb   $0x0,0xc0d0bd61
c01093f8:	eb 16                	jmp    c0109410 <handle_keywords+0xf4>
        }else if(make_code == alt_l_make || make_code == alt_r_make){
c01093fa:	66 83 7d ec 38       	cmpw   $0x38,-0x14(%ebp)
c01093ff:	74 08                	je     c0109409 <handle_keywords+0xed>
c0109401:	66 81 7d ec 38 e0    	cmpw   $0xe038,-0x14(%ebp)
c0109407:	75 07                	jne    c0109410 <handle_keywords+0xf4>
            alt_status = 0;
c0109409:	c6 05 62 bd d0 c0 00 	movb   $0x0,0xc0d0bd62
        }
        io_outb(0x20, 0x20);
c0109410:	6a 20                	push   $0x20
c0109412:	6a 20                	push   $0x20
c0109414:	e8 b3 fb ff ff       	call   c0108fcc <io_outb>
c0109419:	83 c4 08             	add    $0x8,%esp
        io_outb(0x20, 0x20);
c010941c:	6a 20                	push   $0x20
c010941e:	6a 20                	push   $0x20
c0109420:	e8 a7 fb ff ff       	call   c0108fcc <io_outb>
c0109425:	83 c4 08             	add    $0x8,%esp
        asm volatile("sti");
c0109428:	fb                   	sti    
        return;
c0109429:	e9 7e 01 00 00       	jmp    c01095ac <handle_keywords+0x290>
    }//if is common word, hand
    else if((scancode > 0x00 && scancode < 0x3b) ||\
c010942e:	66 83 7d f6 00       	cmpw   $0x0,-0xa(%ebp)
c0109433:	74 07                	je     c010943c <handle_keywords+0x120>
c0109435:	66 83 7d f6 3a       	cmpw   $0x3a,-0xa(%ebp)
c010943a:	76 14                	jbe    c0109450 <handle_keywords+0x134>
c010943c:	66 81 7d f6 38 e0    	cmpw   $0xe038,-0xa(%ebp)
c0109442:	74 0c                	je     c0109450 <handle_keywords+0x134>
            (scancode == alt_r_make) || \
c0109444:	66 81 7d f6 1d e0    	cmpw   $0xe01d,-0xa(%ebp)
c010944a:	0f 85 20 01 00 00    	jne    c0109570 <handle_keywords+0x254>
            (scancode == crtl_r_make)){
        uint8_t shift = 0;
c0109450:	c6 45 f5 00          	movb   $0x0,-0xb(%ebp)
        if((scancode < 0x0e) || (scancode == 0x29) || \
c0109454:	66 83 7d f6 0d       	cmpw   $0xd,-0xa(%ebp)
c0109459:	76 3f                	jbe    c010949a <handle_keywords+0x17e>
c010945b:	66 83 7d f6 29       	cmpw   $0x29,-0xa(%ebp)
c0109460:	74 38                	je     c010949a <handle_keywords+0x17e>
c0109462:	66 83 7d f6 1a       	cmpw   $0x1a,-0xa(%ebp)
c0109467:	74 31                	je     c010949a <handle_keywords+0x17e>
           (scancode == 0x1a) || (scancode == 0x1b) ||\
c0109469:	66 83 7d f6 1b       	cmpw   $0x1b,-0xa(%ebp)
c010946e:	74 2a                	je     c010949a <handle_keywords+0x17e>
c0109470:	66 83 7d f6 2b       	cmpw   $0x2b,-0xa(%ebp)
c0109475:	74 23                	je     c010949a <handle_keywords+0x17e>
           (scancode == 0x2b) || (scancode == 0x27) ||\
c0109477:	66 83 7d f6 27       	cmpw   $0x27,-0xa(%ebp)
c010947c:	74 1c                	je     c010949a <handle_keywords+0x17e>
c010947e:	66 83 7d f6 28       	cmpw   $0x28,-0xa(%ebp)
c0109483:	74 15                	je     c010949a <handle_keywords+0x17e>
           (scancode == 0x28) || (scancode == 0x33) ||\
c0109485:	66 83 7d f6 33       	cmpw   $0x33,-0xa(%ebp)
c010948a:	74 0e                	je     c010949a <handle_keywords+0x17e>
c010948c:	66 83 7d f6 34       	cmpw   $0x34,-0xa(%ebp)
c0109491:	74 07                	je     c010949a <handle_keywords+0x17e>
           (scancode == 0x34) || (scancode == 0x35)){
c0109493:	66 83 7d f6 35       	cmpw   $0x35,-0xa(%ebp)
c0109498:	75 34                	jne    c01094ce <handle_keywords+0x1b2>
            if(shift_down_last)
c010949a:	80 7d f3 00          	cmpb   $0x0,-0xd(%ebp)
c010949e:	74 06                	je     c01094a6 <handle_keywords+0x18a>
                shift = 1;
c01094a0:	c6 45 f5 01          	movb   $0x1,-0xb(%ebp)
c01094a4:	eb 28                	jmp    c01094ce <handle_keywords+0x1b2>
            else{
                if(shift_down_last && caps_lock_last)
c01094a6:	80 7d f3 00          	cmpb   $0x0,-0xd(%ebp)
c01094aa:	74 0c                	je     c01094b8 <handle_keywords+0x19c>
c01094ac:	80 7d f2 00          	cmpb   $0x0,-0xe(%ebp)
c01094b0:	74 06                	je     c01094b8 <handle_keywords+0x19c>
                    shift = 0;
c01094b2:	c6 45 f5 00          	movb   $0x0,-0xb(%ebp)
c01094b6:	eb 16                	jmp    c01094ce <handle_keywords+0x1b2>
                else if(shift_down_last || caps_lock_last)
c01094b8:	80 7d f3 00          	cmpb   $0x0,-0xd(%ebp)
c01094bc:	75 06                	jne    c01094c4 <handle_keywords+0x1a8>
c01094be:	80 7d f2 00          	cmpb   $0x0,-0xe(%ebp)
c01094c2:	74 06                	je     c01094ca <handle_keywords+0x1ae>
                    shift = 1;
c01094c4:	c6 45 f5 01          	movb   $0x1,-0xb(%ebp)
c01094c8:	eb 04                	jmp    c01094ce <handle_keywords+0x1b2>
                else
                    shift = 0;
c01094ca:	c6 45 f5 00          	movb   $0x0,-0xb(%ebp)
                }
           }
        uint8_t index = (scancode &= 0x00ff);
c01094ce:	66 81 65 f6 ff 00    	andw   $0xff,-0xa(%ebp)
c01094d4:	0f b7 45 f6          	movzwl -0xa(%ebp),%eax
c01094d8:	88 45 f0             	mov    %al,-0x10(%ebp)
        char cur_char = key_map[index][shift];
c01094db:	0f b6 55 f0          	movzbl -0x10(%ebp),%edx
c01094df:	0f b6 45 f5          	movzbl -0xb(%ebp),%eax
c01094e3:	0f b6 84 50 a0 d0 d0 	movzbl -0x3f2f2f60(%eax,%edx,2),%eax
c01094ea:	c0 
c01094eb:	88 45 ef             	mov    %al,-0x11(%ebp)

        if(cur_char){
c01094ee:	80 7d ef 00          	cmpb   $0x0,-0x11(%ebp)
c01094f2:	74 34                	je     c0109528 <handle_keywords+0x20c>
            vga_put_char(cur_char);
c01094f4:	0f be 45 ef          	movsbl -0x11(%ebp),%eax
c01094f8:	83 ec 0c             	sub    $0xc,%esp
c01094fb:	50                   	push   %eax
c01094fc:	e8 1d cb ff ff       	call   c010601e <vga_put_char>
c0109501:	83 c4 10             	add    $0x10,%esp
            io_outb(0x20, 0x20);
c0109504:	83 ec 08             	sub    $0x8,%esp
c0109507:	6a 20                	push   $0x20
c0109509:	6a 20                	push   $0x20
c010950b:	e8 bc fa ff ff       	call   c0108fcc <io_outb>
c0109510:	83 c4 10             	add    $0x10,%esp
            io_outb(0x20, 0x20);
c0109513:	83 ec 08             	sub    $0x8,%esp
c0109516:	6a 20                	push   $0x20
c0109518:	6a 20                	push   $0x20
c010951a:	e8 ad fa ff ff       	call   c0108fcc <io_outb>
c010951f:	83 c4 10             	add    $0x10,%esp
            asm volatile("sti");
c0109522:	fb                   	sti    
            return;
c0109523:	e9 84 00 00 00       	jmp    c01095ac <handle_keywords+0x290>
        }

        if(scancode == crtl_l_make || scancode == crtl_r_make)
c0109528:	66 83 7d f6 1d       	cmpw   $0x1d,-0xa(%ebp)
c010952d:	74 08                	je     c0109537 <handle_keywords+0x21b>
c010952f:	66 81 7d f6 1d e0    	cmpw   $0xe01d,-0xa(%ebp)
c0109535:	75 09                	jne    c0109540 <handle_keywords+0x224>
            crtl_status = 1;
c0109537:	c6 05 60 bd d0 c0 01 	movb   $0x1,0xc0d0bd60
c010953e:	eb 2e                	jmp    c010956e <handle_keywords+0x252>
        else if(scancode == shift_l_make || scancode == shift_r_make)
c0109540:	66 83 7d f6 2a       	cmpw   $0x2a,-0xa(%ebp)
c0109545:	74 07                	je     c010954e <handle_keywords+0x232>
c0109547:	66 83 7d f6 36       	cmpw   $0x36,-0xa(%ebp)
c010954c:	75 09                	jne    c0109557 <handle_keywords+0x23b>
            shift_status = 1;
c010954e:	c6 05 61 bd d0 c0 01 	movb   $0x1,0xc0d0bd61
c0109555:	eb 17                	jmp    c010956e <handle_keywords+0x252>
        else if(scancode == caps_lock_make)
c0109557:	66 83 7d f6 3a       	cmpw   $0x3a,-0xa(%ebp)
c010955c:	75 4d                	jne    c01095ab <handle_keywords+0x28f>
            caps_lock_status = ~caps_lock_status;
c010955e:	0f b6 05 63 bd d0 c0 	movzbl 0xc0d0bd63,%eax
c0109565:	f7 d0                	not    %eax
c0109567:	a2 63 bd d0 c0       	mov    %al,0xc0d0bd63
            (scancode == crtl_r_make)){
c010956c:	eb 3d                	jmp    c01095ab <handle_keywords+0x28f>
c010956e:	eb 3b                	jmp    c01095ab <handle_keywords+0x28f>
    }else{
        vga_put_char((char)(scancode && 0x00ff));
c0109570:	66 83 7d f6 00       	cmpw   $0x0,-0xa(%ebp)
c0109575:	0f 95 c0             	setne  %al
c0109578:	0f b6 c0             	movzbl %al,%eax
c010957b:	0f be c0             	movsbl %al,%eax
c010957e:	83 ec 0c             	sub    $0xc,%esp
c0109581:	50                   	push   %eax
c0109582:	e8 97 ca ff ff       	call   c010601e <vga_put_char>
c0109587:	83 c4 10             	add    $0x10,%esp
        io_outb(0x20, 0x20);
c010958a:	83 ec 08             	sub    $0x8,%esp
c010958d:	6a 20                	push   $0x20
c010958f:	6a 20                	push   $0x20
c0109591:	e8 36 fa ff ff       	call   c0108fcc <io_outb>
c0109596:	83 c4 10             	add    $0x10,%esp
        io_outb(0x20, 0x20);
c0109599:	83 ec 08             	sub    $0x8,%esp
c010959c:	6a 20                	push   $0x20
c010959e:	6a 20                	push   $0x20
c01095a0:	e8 27 fa ff ff       	call   c0108fcc <io_outb>
c01095a5:	83 c4 10             	add    $0x10,%esp
        asm volatile("sti");
c01095a8:	fb                   	sti    
c01095a9:	eb 01                	jmp    c01095ac <handle_keywords+0x290>
            (scancode == crtl_r_make)){
c01095ab:	90                   	nop
    }
c01095ac:	c9                   	leave  
c01095ad:	c3                   	ret    

c01095ae <syscall>:
{
c01095ae:	55                   	push   %ebp
c01095af:	89 e5                	mov    %esp,%ebp
c01095b1:	57                   	push   %edi
    asm volatile("int %0" ::"i"(0x80), "D"(callcode) : "eax");
c01095b2:	8b 55 08             	mov    0x8(%ebp),%edx
c01095b5:	89 d7                	mov    %edx,%edi
c01095b7:	cd 80                	int    $0x80
}
c01095b9:	90                   	nop
c01095ba:	8b 7d fc             	mov    -0x4(%ebp),%edi
c01095bd:	c9                   	leave  
c01095be:	c3                   	ret    

c01095bf <syscall_install>:
#include <kernel/process/peocess.h>
#include <syscall/syscall.h>

extern void syscall_handlr(isr_param* param);

void syscall_install() {
c01095bf:	55                   	push   %ebp
c01095c0:	89 e5                	mov    %esp,%ebp
c01095c2:	83 ec 08             	sub    $0x8,%esp
    intr_subscribe(MELOX_SYS_CALL, syscall_handlr);
c01095c5:	83 ec 08             	sub    $0x8,%esp
c01095c8:	68 dd 95 10 c0       	push   $0xc01095dd
c01095cd:	68 80 00 00 00       	push   $0x80
c01095d2:	e8 ad e8 ff ff       	call   c0107e84 <intr_subscribe>
c01095d7:	83 c4 10             	add    $0x10,%esp
}
c01095da:	90                   	nop
c01095db:	c9                   	leave  
c01095dc:	c3                   	ret    

c01095dd <syscall_handlr>:
c01095dd:	55                   	push   %ebp
c01095de:	8b 6c 24 08          	mov    0x8(%esp),%ebp
c01095e2:	8b 45 00             	mov    0x0(%ebp),%eax
c01095e5:	3d 00 01 00 00       	cmp    $0x100,%eax
c01095ea:	73 0d                	jae    c01095f9 <syscall_handlr+0x1c>
c01095ec:	c1 e0 02             	shl    $0x2,%eax
c01095ef:	05 74 d1 d0 c0       	add    $0xc0d0d174,%eax
c01095f4:	83 38 00             	cmpl   $0x0,(%eax)
c01095f7:	75 04                	jne    c01095fd <syscall_handlr+0x20>
c01095f9:	f7 d8                	neg    %eax
c01095fb:	5d                   	pop    %ebp
c01095fc:	c3                   	ret    
c01095fd:	ff 75 18             	push   0x18(%ebp)
c0109600:	ff 75 14             	push   0x14(%ebp)
c0109603:	ff 75 10             	push   0x10(%ebp)
c0109606:	ff 75 0c             	push   0xc(%ebp)
c0109609:	ff 75 08             	push   0x8(%ebp)
c010960c:	ff 75 04             	push   0x4(%ebp)
c010960f:	ff 10                	call   *(%eax)
c0109611:	89 45 00             	mov    %eax,0x0(%ebp)
c0109614:	83 c4 18             	add    $0x18,%esp
c0109617:	5d                   	pop    %ebp
c0109618:	c3                   	ret    

c0109619 <__assert_fail>:
#include <common.h>
#include <libs/mstdio.h>

static char buffer[1024];

void __assert_fail(const char* expr, const char* file, unsigned int line) {
c0109619:	55                   	push   %ebp
c010961a:	89 e5                	mov    %esp,%ebp
c010961c:	57                   	push   %edi
c010961d:	83 ec 04             	sub    $0x4,%esp
    kprintf(buffer, "%s (%s:%u)", expr, file, line);
c0109620:	83 ec 0c             	sub    $0xc,%esp
c0109623:	ff 75 10             	push   0x10(%ebp)
c0109626:	ff 75 0c             	push   0xc(%ebp)
c0109629:	ff 75 08             	push   0x8(%ebp)
c010962c:	68 5d e6 d0 c0       	push   $0xc0d0e65d
c0109631:	68 80 bd d0 c0       	push   $0xc0d0bd80
c0109636:	e8 85 0b 00 00       	call   c010a1c0 <kprintf>
c010963b:	83 c4 20             	add    $0x20,%esp

    // Here we load the buffer's address into %edi ("D" constraint)
    //  This is a convention we made that the LUNAIX_SYS_PANIC syscall will
    //  print the panic message passed via %edi. (see kernel/asm/x86/interrupts.c)
    asm(
c010963e:	b8 80 bd d0 c0       	mov    $0xc0d0bd80,%eax
c0109643:	89 c7                	mov    %eax,%edi
c0109645:	cd 20                	int    $0x20
        "int %0"
        ::"i"(32), "D"(buffer)
    );

    while(1);     // never reach
c0109647:	eb fe                	jmp    c0109647 <__assert_fail+0x2e>

c0109649 <cpu_rcr3>:
{
c0109649:	55                   	push   %ebp
c010964a:	89 e5                	mov    %esp,%ebp
c010964c:	83 ec 10             	sub    $0x10,%esp
    asm volatile("movl %%cr3,%0" : "=r" (val));
c010964f:	0f 20 d8             	mov    %cr3,%eax
c0109652:	89 45 fc             	mov    %eax,-0x4(%ebp)
    return val;
c0109655:	8b 45 fc             	mov    -0x4(%ebp),%eax
}
c0109658:	c9                   	leave  
c0109659:	c3                   	ret    

c010965a <cpu_invplg>:
{
c010965a:	55                   	push   %ebp
c010965b:	89 e5                	mov    %esp,%ebp
    asm volatile("invlpg (%0)" ::"r"((unsigned int)va) : "memory");
c010965d:	8b 45 08             	mov    0x8(%ebp),%eax
c0109660:	0f 01 38             	invlpg (%eax)
};
c0109663:	90                   	nop
c0109664:	5d                   	pop    %ebp
c0109665:	c3                   	ret    

c0109666 <llist_init_head>:
static inline void llist_init_head(struct llist_header* head) {
c0109666:	55                   	push   %ebp
c0109667:	89 e5                	mov    %esp,%ebp
    head->next = head;
c0109669:	8b 45 08             	mov    0x8(%ebp),%eax
c010966c:	8b 55 08             	mov    0x8(%ebp),%edx
c010966f:	89 50 04             	mov    %edx,0x4(%eax)
    head->prev = head;
c0109672:	8b 45 08             	mov    0x8(%ebp),%eax
c0109675:	8b 55 08             	mov    0x8(%ebp),%edx
c0109678:	89 10                	mov    %edx,(%eax)
}
c010967a:	90                   	nop
c010967b:	5d                   	pop    %ebp
c010967c:	c3                   	ret    

c010967d <syscall>:
{
c010967d:	55                   	push   %ebp
c010967e:	89 e5                	mov    %esp,%ebp
c0109680:	57                   	push   %edi
    asm volatile("int %0" ::"i"(0x80), "D"(callcode) : "eax");
c0109681:	8b 55 08             	mov    0x8(%ebp),%edx
c0109684:	89 d7                	mov    %edx,%edi
c0109686:	cd 80                	int    $0x80
}
c0109688:	90                   	nop
c0109689:	8b 7d fc             	mov    -0x4(%ebp),%edi
c010968c:	c9                   	leave  
c010968d:	c3                   	ret    

c010968e <__mxsys_fork>:
#include <libs/mstdio.h>

extern volatile struct m_pcb* __current;//TODO MOVE TO .H AND TODO SCHEDULE

__DEFINE_MXSYSCALL(pid_t, fork)
{
c010968e:	55                   	push   %ebp
c010968f:	89 e5                	mov    %esp,%ebp
c0109691:	83 ec 08             	sub    $0x8,%esp
    return m_fork();
c0109694:	e8 a5 02 00 00       	call   c010993e <m_fork>
}
c0109699:	c9                   	leave  
c010969a:	c3                   	ret    

c010969b <__mxsys_getpid>:

__DEFINE_MXSYSCALL(pid_t, getpid)
{
c010969b:	55                   	push   %ebp
c010969c:	89 e5                	mov    %esp,%ebp
    return __current->pid;
c010969e:	a1 80 c1 d0 c0       	mov    0xc0d0c180,%eax
c01096a3:	8b 00                	mov    (%eax),%eax
}
c01096a5:	5d                   	pop    %ebp
c01096a6:	c3                   	ret    

c01096a7 <__mxsys_getppid>:

__DEFINE_MXSYSCALL(pid_t, getppid)
{
c01096a7:	55                   	push   %ebp
c01096a8:	89 e5                	mov    %esp,%ebp
    return __current->parent->pid;
c01096aa:	a1 80 c1 d0 c0       	mov    0xc0d0c180,%eax
c01096af:	8b 40 04             	mov    0x4(%eax),%eax
c01096b2:	8b 00                	mov    (%eax),%eax
}
c01096b4:	5d                   	pop    %ebp
c01096b5:	c3                   	ret    

c01096b6 <init_proc>:

void init_proc(struct m_pcb* pcb)
{
c01096b6:	55                   	push   %ebp
c01096b7:	89 e5                	mov    %esp,%ebp
c01096b9:	83 ec 08             	sub    $0x8,%esp
    memset(pcb, 0, sizeof(*pcb));
c01096bc:	83 ec 04             	sub    $0x4,%esp
c01096bf:	6a 6c                	push   $0x6c
c01096c1:	6a 00                	push   $0x0
c01096c3:	ff 75 08             	push   0x8(%ebp)
c01096c6:	e8 8c 0d 00 00       	call   c010a457 <memset>
c01096cb:	83 c4 10             	add    $0x10,%esp

    pcb->pid = alloc_pid();
c01096ce:	e8 b1 07 00 00       	call   c0109e84 <alloc_pid>
c01096d3:	8b 55 08             	mov    0x8(%ebp),%edx
c01096d6:	89 02                	mov    %eax,(%edx)
    pcb->state = PROC_CREATED;
c01096d8:	8b 45 08             	mov    0x8(%ebp),%eax
c01096db:	c6 40 44 10          	movb   $0x10,0x44(%eax)
    pcb->pro_ticks = 10;
c01096df:	8b 45 08             	mov    0x8(%ebp),%eax
c01096e2:	c7 40 5c 0a 00 00 00 	movl   $0xa,0x5c(%eax)
}
c01096e9:	90                   	nop
c01096ea:	c9                   	leave  
c01096eb:	c3                   	ret    

c01096ec <copy_pagetable>:

void* copy_pagetable(pid_t pid, uintptr_t mount_point)
{
c01096ec:	55                   	push   %ebp
c01096ed:	89 e5                	mov    %esp,%ebp
c01096ef:	83 ec 38             	sub    $0x38,%esp
    uint32_t a;
    if(pid == 1)
c01096f2:	83 7d 08 01          	cmpl   $0x1,0x8(%ebp)
c01096f6:	75 08                	jne    c0109700 <copy_pagetable+0x14>
        a = cpu_rcr3();
c01096f8:	e8 4c ff ff ff       	call   c0109649 <cpu_rcr3>
c01096fd:	89 45 ec             	mov    %eax,-0x14(%ebp)
    void* ptd_pp = pmm_alloc_page(pid, PP_FGPERSIST);
c0109700:	83 ec 08             	sub    $0x8,%esp
c0109703:	6a 01                	push   $0x1
c0109705:	ff 75 08             	push   0x8(%ebp)
c0109708:	e8 5e d1 ff ff       	call   c010686b <pmm_alloc_page>
c010970d:	83 c4 10             	add    $0x10,%esp
c0109710:	89 45 e8             	mov    %eax,-0x18(%ebp)
    pt_t* ptd = vmm_cover_map_page(pid, PD_MOUNT_1, ptd_pp, PG_PREM_RW,PG_PREM_RW);
c0109713:	83 ec 0c             	sub    $0xc,%esp
c0109716:	6a 03                	push   $0x3
c0109718:	6a 03                	push   $0x3
c010971a:	ff 75 e8             	push   -0x18(%ebp)
c010971d:	68 00 00 c0 af       	push   $0xafc00000
c0109722:	ff 75 08             	push   0x8(%ebp)
c0109725:	e8 92 df ff ff       	call   c01076bc <vmm_cover_map_page>
c010972a:	83 c4 20             	add    $0x20,%esp
c010972d:	89 45 e4             	mov    %eax,-0x1c(%ebp)
    ptd_t* pptd = (ptd_t*)(mount_point | (0x3FF << 12));
c0109730:	8b 45 0c             	mov    0xc(%ebp),%eax
c0109733:	0d 00 f0 3f 00       	or     $0x3ff000,%eax
c0109738:	89 45 e0             	mov    %eax,-0x20(%ebp)

    for (size_t i = 0; i < PG_MAX_ENTRIES - 1; i++) {
c010973b:	c7 45 f4 00 00 00 00 	movl   $0x0,-0xc(%ebp)
c0109742:	e9 f8 00 00 00       	jmp    c010983f <copy_pagetable+0x153>
        ptd_t ptde = pptd[i];
c0109747:	8b 45 f4             	mov    -0xc(%ebp),%eax
c010974a:	8d 14 85 00 00 00 00 	lea    0x0(,%eax,4),%edx
c0109751:	8b 45 e0             	mov    -0x20(%ebp),%eax
c0109754:	01 d0                	add    %edx,%eax
c0109756:	8b 00                	mov    (%eax),%eax
c0109758:	89 45 dc             	mov    %eax,-0x24(%ebp)
        if (!ptde || !(ptde & PG_PRESENT)) {
c010975b:	83 7d dc 00          	cmpl   $0x0,-0x24(%ebp)
c010975f:	74 0a                	je     c010976b <copy_pagetable+0x7f>
c0109761:	8b 45 dc             	mov    -0x24(%ebp),%eax
c0109764:	83 e0 01             	and    $0x1,%eax
c0109767:	85 c0                	test   %eax,%eax
c0109769:	75 19                	jne    c0109784 <copy_pagetable+0x98>
            ptd[i] = ptde;
c010976b:	8b 45 f4             	mov    -0xc(%ebp),%eax
c010976e:	8d 14 85 00 00 00 00 	lea    0x0(,%eax,4),%edx
c0109775:	8b 45 e4             	mov    -0x1c(%ebp),%eax
c0109778:	01 c2                	add    %eax,%edx
c010977a:	8b 45 dc             	mov    -0x24(%ebp),%eax
c010977d:	89 02                	mov    %eax,(%edx)
            continue;
c010977f:	e9 b7 00 00 00       	jmp    c010983b <copy_pagetable+0x14f>
        }

        pt_t* ppt = (pt_t*)(mount_point | (i << 12));
c0109784:	8b 45 f4             	mov    -0xc(%ebp),%eax
c0109787:	c1 e0 0c             	shl    $0xc,%eax
c010978a:	0b 45 0c             	or     0xc(%ebp),%eax
c010978d:	89 45 d8             	mov    %eax,-0x28(%ebp)
        void* pt_pp = pmm_alloc_page(pid, PP_FGPERSIST);
c0109790:	83 ec 08             	sub    $0x8,%esp
c0109793:	6a 01                	push   $0x1
c0109795:	ff 75 08             	push   0x8(%ebp)
c0109798:	e8 ce d0 ff ff       	call   c010686b <pmm_alloc_page>
c010979d:	83 c4 10             	add    $0x10,%esp
c01097a0:	89 45 d4             	mov    %eax,-0x2c(%ebp)
        // if(pid == 1)
        //     kprintf("index%d,p0pde%x ", i, pt_pp);
        pt_t* pt = vmm_cover_map_page(pid, PG_MOUNT_2, pt_pp, PG_PREM_RW,PG_PREM_RW);
c01097a3:	83 ec 0c             	sub    $0xc,%esp
c01097a6:	6a 03                	push   $0x3
c01097a8:	6a 03                	push   $0x3
c01097aa:	ff 75 d4             	push   -0x2c(%ebp)
c01097ad:	68 00 e0 7f af       	push   $0xaf7fe000
c01097b2:	ff 75 08             	push   0x8(%ebp)
c01097b5:	e8 02 df ff ff       	call   c01076bc <vmm_cover_map_page>
c01097ba:	83 c4 20             	add    $0x20,%esp
c01097bd:	89 45 d0             	mov    %eax,-0x30(%ebp)
        for (size_t j = 0; j < PG_MAX_ENTRIES; j++) {
c01097c0:	c7 45 f0 00 00 00 00 	movl   $0x0,-0x10(%ebp)
c01097c7:	eb 43                	jmp    c010980c <copy_pagetable+0x120>
            pt_t pte = ppt[j];
c01097c9:	8b 45 f0             	mov    -0x10(%ebp),%eax
c01097cc:	8d 14 85 00 00 00 00 	lea    0x0(,%eax,4),%edx
c01097d3:	8b 45 d8             	mov    -0x28(%ebp),%eax
c01097d6:	01 d0                	add    %edx,%eax
c01097d8:	8b 00                	mov    (%eax),%eax
c01097da:	89 45 cc             	mov    %eax,-0x34(%ebp)
            pmm_ref_page(pid, PG_ENTRY_ADDR(pte));
c01097dd:	8b 45 cc             	mov    -0x34(%ebp),%eax
c01097e0:	25 00 f0 ff ff       	and    $0xfffff000,%eax
c01097e5:	83 ec 08             	sub    $0x8,%esp
c01097e8:	50                   	push   %eax
c01097e9:	ff 75 08             	push   0x8(%ebp)
c01097ec:	e8 4a d2 ff ff       	call   c0106a3b <pmm_ref_page>
c01097f1:	83 c4 10             	add    $0x10,%esp
            pt[j] = pte;
c01097f4:	8b 45 f0             	mov    -0x10(%ebp),%eax
c01097f7:	8d 14 85 00 00 00 00 	lea    0x0(,%eax,4),%edx
c01097fe:	8b 45 d0             	mov    -0x30(%ebp),%eax
c0109801:	01 c2                	add    %eax,%edx
c0109803:	8b 45 cc             	mov    -0x34(%ebp),%eax
c0109806:	89 02                	mov    %eax,(%edx)
        for (size_t j = 0; j < PG_MAX_ENTRIES; j++) {
c0109808:	83 45 f0 01          	addl   $0x1,-0x10(%ebp)
c010980c:	81 7d f0 ff 03 00 00 	cmpl   $0x3ff,-0x10(%ebp)
c0109813:	76 b4                	jbe    c01097c9 <copy_pagetable+0xdd>
        }
        ptd[i] = (uint32_t)pt_pp | PG_PREM_RW;
c0109815:	8b 55 d4             	mov    -0x2c(%ebp),%edx
c0109818:	8b 45 f4             	mov    -0xc(%ebp),%eax
c010981b:	8d 0c 85 00 00 00 00 	lea    0x0(,%eax,4),%ecx
c0109822:	8b 45 e4             	mov    -0x1c(%ebp),%eax
c0109825:	01 c8                	add    %ecx,%eax
c0109827:	83 ca 03             	or     $0x3,%edx
c010982a:	89 10                	mov    %edx,(%eax)
        cpu_invplg(ptde);
c010982c:	8b 45 dc             	mov    -0x24(%ebp),%eax
c010982f:	83 ec 0c             	sub    $0xc,%esp
c0109832:	50                   	push   %eax
c0109833:	e8 22 fe ff ff       	call   c010965a <cpu_invplg>
c0109838:	83 c4 10             	add    $0x10,%esp
    for (size_t i = 0; i < PG_MAX_ENTRIES - 1; i++) {
c010983b:	83 45 f4 01          	addl   $0x1,-0xc(%ebp)
c010983f:	81 7d f4 fe 03 00 00 	cmpl   $0x3fe,-0xc(%ebp)
c0109846:	0f 86 fb fe ff ff    	jbe    c0109747 <copy_pagetable+0x5b>
    }
    ptd[PG_MAX_ENTRIES - 1] = PDE(T_SELF_REF_PERM, ptd_pp);
c010984c:	8b 45 e8             	mov    -0x18(%ebp),%eax
c010984f:	25 00 f0 ff ff       	and    $0xfffff000,%eax
c0109854:	89 c2                	mov    %eax,%edx
c0109856:	8b 45 e4             	mov    -0x1c(%ebp),%eax
c0109859:	05 fc 0f 00 00       	add    $0xffc,%eax
c010985e:	83 ca 1b             	or     $0x1b,%edx
c0109861:	89 10                	mov    %edx,(%eax)
    //pt_t* ppt = (pt_t*)(0xffc00000);
    //uint32_t b = ppt[1];
    return ptd_pp;
c0109863:	8b 45 e8             	mov    -0x18(%ebp),%eax
}
c0109866:	c9                   	leave  
c0109867:	c3                   	ret    

c0109868 <setup_proc_mem>:

void* setup_proc_mem(struct m_pcb* proc, uintptr_t usedMnt)
{
c0109868:	55                   	push   %ebp
c0109869:	89 e5                	mov    %esp,%ebp
c010986b:	83 ec 28             	sub    $0x28,%esp
    // copy the entire kernel page table
    pid_t pid = proc->pid;
c010986e:	8b 45 08             	mov    0x8(%ebp),%eax
c0109871:	8b 00                	mov    (%eax),%eax
c0109873:	89 45 f0             	mov    %eax,-0x10(%ebp)
    void* pt_copy = copy_pagetable(pid, usedMnt);
c0109876:	83 ec 08             	sub    $0x8,%esp
c0109879:	ff 75 0c             	push   0xc(%ebp)
c010987c:	ff 75 f0             	push   -0x10(%ebp)
c010987f:	e8 68 fe ff ff       	call   c01096ec <copy_pagetable>
c0109884:	83 c4 10             	add    $0x10,%esp
c0109887:	89 45 ec             	mov    %eax,-0x14(%ebp)
    vmm_unmount_pd(PD_MOUNT_1);
c010988a:	83 ec 0c             	sub    $0xc,%esp
c010988d:	68 00 00 c0 af       	push   $0xafc00000
c0109892:	e8 c3 e2 ff ff       	call   c0107b5a <vmm_unmount_pd>
c0109897:	83 c4 10             	add    $0x10,%esp
    vmm_mount_pd(PD_MOUNT_2, pt_copy); // 将新进程的页表挂载到挂载点#2
c010989a:	83 ec 08             	sub    $0x8,%esp
c010989d:	ff 75 ec             	push   -0x14(%ebp)
c01098a0:	68 00 00 80 af       	push   $0xaf800000
c01098a5:	e8 71 e2 ff ff       	call   c0107b1b <vmm_mount_pd>
c01098aa:	83 c4 10             	add    $0x10,%esp
    //kprintf("pid%d, cr3%x ",pid, pt_copy);
    // copy the kernel stack
    int c = 0;
c01098ad:	c7 45 e8 00 00 00 00 	movl   $0x0,-0x18(%ebp)
    for (size_t i = KSTACK_START >> 12; i <= (KSATCK_TOP >> 12); i++) {
c01098b4:	c7 45 f4 f0 fb 0f 00 	movl   $0xffbf0,-0xc(%ebp)
c01098bb:	eb 6c                	jmp    c0109929 <setup_proc_mem+0xc1>
        volatile pt_t* ppte = &PTE_MOUNTED(PD_MOUNT_2, i);//get the stack page phy addr address point
c01098bd:	8b 45 f4             	mov    -0xc(%ebp),%eax
c01098c0:	25 ff 03 00 00       	and    $0x3ff,%eax
c01098c5:	8d 14 85 00 00 00 00 	lea    0x0(,%eax,4),%edx
c01098cc:	8b 45 f4             	mov    -0xc(%ebp),%eax
c01098cf:	c1 e0 02             	shl    $0x2,%eax
c01098d2:	25 00 f0 3f 00       	and    $0x3ff000,%eax
c01098d7:	0d 00 00 80 af       	or     $0xaf800000,%eax
c01098dc:	01 d0                	add    %edx,%eax
c01098de:	89 45 e4             	mov    %eax,-0x1c(%ebp)
        //kprintf("ppte0x%x", ppte);
        /*
            The TLB caching keep the rewrite to PTE
            from updating. 
        */
        cpu_invplg(ppte);
c01098e1:	83 ec 0c             	sub    $0xc,%esp
c01098e4:	ff 75 e4             	push   -0x1c(%ebp)
c01098e7:	e8 6e fd ff ff       	call   c010965a <cpu_invplg>
c01098ec:	83 c4 10             	add    $0x10,%esp

        pt_t p = *ppte;
c01098ef:	8b 45 e4             	mov    -0x1c(%ebp),%eax
c01098f2:	8b 00                	mov    (%eax),%eax
c01098f4:	89 45 e0             	mov    %eax,-0x20(%ebp)
        //kprintf("inex %d, padd%x ", c++, p);
        void* ppa = vmm_dup_page(pid, PG_ENTRY_ADDR(p));
c01098f7:	8b 45 e0             	mov    -0x20(%ebp),%eax
c01098fa:	25 00 f0 ff ff       	and    $0xfffff000,%eax
c01098ff:	83 ec 08             	sub    $0x8,%esp
c0109902:	50                   	push   %eax
c0109903:	ff 75 f0             	push   -0x10(%ebp)
c0109906:	e8 7e e1 ff ff       	call   c0107a89 <vmm_dup_page>
c010990b:	83 c4 10             	add    $0x10,%esp
c010990e:	89 45 dc             	mov    %eax,-0x24(%ebp)
        //kprintf("ppa0x%x ", ppa);
        *ppte = (p & 0xfff) | (uintptr_t)ppa;
c0109911:	8b 45 e0             	mov    -0x20(%ebp),%eax
c0109914:	25 ff 0f 00 00       	and    $0xfff,%eax
c0109919:	89 c2                	mov    %eax,%edx
c010991b:	8b 45 dc             	mov    -0x24(%ebp),%eax
c010991e:	09 c2                	or     %eax,%edx
c0109920:	8b 45 e4             	mov    -0x1c(%ebp),%eax
c0109923:	89 10                	mov    %edx,(%eax)
    for (size_t i = KSTACK_START >> 12; i <= (KSATCK_TOP >> 12); i++) {
c0109925:	83 45 f4 01          	addl   $0x1,-0xc(%ebp)
c0109929:	81 7d f4 ff fb 0f 00 	cmpl   $0xffbff,-0xc(%ebp)
c0109930:	76 8b                	jbe    c01098bd <setup_proc_mem+0x55>
    // 定义用户栈区域，但是不分配实际的物理页。我们会在Page fault
    // handler里面实现动态分配物理页的逻辑。
    // if(pid == 0)
    //     proc->page_table = __current->page_table;
    // else
    proc->page_table = pt_copy;
c0109932:	8b 45 08             	mov    0x8(%ebp),%eax
c0109935:	8b 55 ec             	mov    -0x14(%ebp),%edx
c0109938:	89 50 64             	mov    %edx,0x64(%eax)
}
c010993b:	90                   	nop
c010993c:	c9                   	leave  
c010993d:	c3                   	ret    

c010993e <m_fork>:

pid_t m_fork()
{
c010993e:	55                   	push   %ebp
c010993f:	89 e5                	mov    %esp,%ebp
c0109941:	81 ec a8 00 00 00    	sub    $0xa8,%esp
    struct m_pcb curr_pcb;
    init_proc(&curr_pcb);
c0109947:	83 ec 0c             	sub    $0xc,%esp
c010994a:	8d 85 64 ff ff ff    	lea    -0x9c(%ebp),%eax
c0109950:	50                   	push   %eax
c0109951:	e8 60 fd ff ff       	call   c01096b6 <init_proc>
c0109956:	83 c4 10             	add    $0x10,%esp

    curr_pcb.process_mm = __current->process_mm;
c0109959:	a1 80 c1 d0 c0       	mov    0xc0d0c180,%eax
c010995e:	8b 40 58             	mov    0x58(%eax),%eax
c0109961:	89 45 bc             	mov    %eax,-0x44(%ebp)
    curr_pcb.intr_contxt = __current->intr_contxt;
c0109964:	a1 80 c1 d0 c0       	mov    0xc0d0c180,%eax
c0109969:	8b 50 08             	mov    0x8(%eax),%edx
c010996c:	89 95 6c ff ff ff    	mov    %edx,-0x94(%ebp)
c0109972:	8b 50 0c             	mov    0xc(%eax),%edx
c0109975:	89 95 70 ff ff ff    	mov    %edx,-0x90(%ebp)
c010997b:	8b 50 10             	mov    0x10(%eax),%edx
c010997e:	89 95 74 ff ff ff    	mov    %edx,-0x8c(%ebp)
c0109984:	8b 50 14             	mov    0x14(%eax),%edx
c0109987:	89 95 78 ff ff ff    	mov    %edx,-0x88(%ebp)
c010998d:	8b 50 18             	mov    0x18(%eax),%edx
c0109990:	89 95 7c ff ff ff    	mov    %edx,-0x84(%ebp)
c0109996:	8b 50 1c             	mov    0x1c(%eax),%edx
c0109999:	89 55 80             	mov    %edx,-0x80(%ebp)
c010999c:	8b 50 20             	mov    0x20(%eax),%edx
c010999f:	89 55 84             	mov    %edx,-0x7c(%ebp)
c01099a2:	8b 50 24             	mov    0x24(%eax),%edx
c01099a5:	89 55 88             	mov    %edx,-0x78(%ebp)
c01099a8:	8b 50 28             	mov    0x28(%eax),%edx
c01099ab:	89 55 8c             	mov    %edx,-0x74(%ebp)
c01099ae:	8b 50 2c             	mov    0x2c(%eax),%edx
c01099b1:	89 55 90             	mov    %edx,-0x70(%ebp)
c01099b4:	8b 50 30             	mov    0x30(%eax),%edx
c01099b7:	89 55 94             	mov    %edx,-0x6c(%ebp)
c01099ba:	8b 50 34             	mov    0x34(%eax),%edx
c01099bd:	89 55 98             	mov    %edx,-0x68(%ebp)
c01099c0:	8b 50 38             	mov    0x38(%eax),%edx
c01099c3:	89 55 9c             	mov    %edx,-0x64(%ebp)
c01099c6:	8b 50 3c             	mov    0x3c(%eax),%edx
c01099c9:	89 55 a0             	mov    %edx,-0x60(%ebp)
c01099cc:	8b 40 40             	mov    0x40(%eax),%eax
c01099cf:	89 45 a4             	mov    %eax,-0x5c(%ebp)
    curr_pcb.parent = __current;
c01099d2:	a1 80 c1 d0 c0       	mov    0xc0d0c180,%eax
c01099d7:	89 85 68 ff ff ff    	mov    %eax,-0x98(%ebp)

#ifdef USE_KERNEL_PG
    setup_proc_mem(&pcb, PD_MOUNT_1); //挂载点#1是当前进程的页表
#else
    setup_proc_mem(&curr_pcb, PD_REFERENCED);
c01099dd:	83 ec 08             	sub    $0x8,%esp
c01099e0:	68 00 00 c0 ff       	push   $0xffc00000
c01099e5:	8d 85 64 ff ff ff    	lea    -0x9c(%ebp),%eax
c01099eb:	50                   	push   %eax
c01099ec:	e8 77 fe ff ff       	call   c0109868 <setup_proc_mem>
c01099f1:	83 c4 10             	add    $0x10,%esp
#endif

        // 根据 mm_region 进一步配置页表
    if (!__current->process_mm) {
c01099f4:	a1 80 c1 d0 c0       	mov    0xc0d0c180,%eax
c01099f9:	8b 40 58             	mov    0x58(%eax),%eax
c01099fc:	85 c0                	test   %eax,%eax
c01099fe:	0f 84 68 01 00 00    	je     c0109b6c <m_fork+0x22e>
        goto not_copy;
    }

    llist_init_head(&curr_pcb.process_mm);
c0109a04:	83 ec 0c             	sub    $0xc,%esp
c0109a07:	8d 85 64 ff ff ff    	lea    -0x9c(%ebp),%eax
c0109a0d:	83 c0 58             	add    $0x58,%eax
c0109a10:	50                   	push   %eax
c0109a11:	e8 50 fc ff ff       	call   c0109666 <llist_init_head>
c0109a16:	83 c4 10             	add    $0x10,%esp
    struct mm_region *pos, *n;
    llist_for_each(pos, n, &__current->process_mm->head, head)
c0109a19:	a1 80 c1 d0 c0       	mov    0xc0d0c180,%eax
c0109a1e:	8b 40 58             	mov    0x58(%eax),%eax
c0109a21:	8b 40 04             	mov    0x4(%eax),%eax
c0109a24:	89 45 e8             	mov    %eax,-0x18(%ebp)
c0109a27:	8b 45 e8             	mov    -0x18(%ebp),%eax
c0109a2a:	89 45 f4             	mov    %eax,-0xc(%ebp)
c0109a2d:	8b 45 f4             	mov    -0xc(%ebp),%eax
c0109a30:	8b 40 04             	mov    0x4(%eax),%eax
c0109a33:	89 45 e4             	mov    %eax,-0x1c(%ebp)
c0109a36:	8b 45 e4             	mov    -0x1c(%ebp),%eax
c0109a39:	89 45 f0             	mov    %eax,-0x10(%ebp)
c0109a3c:	e9 18 01 00 00       	jmp    c0109b59 <m_fork+0x21b>
    {
        region_add(&curr_pcb, pos->start, pos->end, pos->attr);
c0109a41:	8b 45 f4             	mov    -0xc(%ebp),%eax
c0109a44:	8b 48 10             	mov    0x10(%eax),%ecx
c0109a47:	8b 45 f4             	mov    -0xc(%ebp),%eax
c0109a4a:	8b 50 0c             	mov    0xc(%eax),%edx
c0109a4d:	8b 45 f4             	mov    -0xc(%ebp),%eax
c0109a50:	8b 40 08             	mov    0x8(%eax),%eax
c0109a53:	51                   	push   %ecx
c0109a54:	52                   	push   %edx
c0109a55:	50                   	push   %eax
c0109a56:	8d 85 64 ff ff ff    	lea    -0x9c(%ebp),%eax
c0109a5c:	50                   	push   %eax
c0109a5d:	e8 dc d7 ff ff       	call   c010723e <region_add>
c0109a62:	83 c4 10             	add    $0x10,%esp

        // 如果写共享，则不作处理。
        if ((pos->attr & REGION_WSHARED)) {
c0109a65:	8b 45 f4             	mov    -0xc(%ebp),%eax
c0109a68:	8b 40 10             	mov    0x10(%eax),%eax
c0109a6b:	83 e0 02             	and    $0x2,%eax
c0109a6e:	85 c0                	test   %eax,%eax
c0109a70:	0f 85 cd 00 00 00    	jne    c0109b43 <m_fork+0x205>
            continue;
        }

        uintptr_t start_vpn = PG_ALIGN(pos->start) >> 12;
c0109a76:	8b 45 f4             	mov    -0xc(%ebp),%eax
c0109a79:	8b 40 08             	mov    0x8(%eax),%eax
c0109a7c:	c1 e8 0c             	shr    $0xc,%eax
c0109a7f:	89 45 e0             	mov    %eax,-0x20(%ebp)
        uintptr_t end_vpn = PG_ALIGN(pos->end) >> 12;
c0109a82:	8b 45 f4             	mov    -0xc(%ebp),%eax
c0109a85:	8b 40 0c             	mov    0xc(%eax),%eax
c0109a88:	c1 e8 0c             	shr    $0xc,%eax
c0109a8b:	89 45 dc             	mov    %eax,-0x24(%ebp)
        for (size_t i = start_vpn; i < end_vpn; i++) {
c0109a8e:	8b 45 e0             	mov    -0x20(%ebp),%eax
c0109a91:	89 45 ec             	mov    %eax,-0x14(%ebp)
c0109a94:	e9 9c 00 00 00       	jmp    c0109b35 <m_fork+0x1f7>
            pt_t* curproc = &PTE_MOUNTED(PD_MOUNT_1, i);
c0109a99:	8b 45 ec             	mov    -0x14(%ebp),%eax
c0109a9c:	25 ff 03 00 00       	and    $0x3ff,%eax
c0109aa1:	8d 14 85 00 00 00 00 	lea    0x0(,%eax,4),%edx
c0109aa8:	8b 45 ec             	mov    -0x14(%ebp),%eax
c0109aab:	c1 e0 02             	shl    $0x2,%eax
c0109aae:	25 00 f0 3f 00       	and    $0x3ff000,%eax
c0109ab3:	0d 00 00 c0 af       	or     $0xafc00000,%eax
c0109ab8:	01 d0                	add    %edx,%eax
c0109aba:	89 45 d8             	mov    %eax,-0x28(%ebp)
            pt_t* newproc = &PTE_MOUNTED(PD_MOUNT_2, i);
c0109abd:	8b 45 ec             	mov    -0x14(%ebp),%eax
c0109ac0:	25 ff 03 00 00       	and    $0x3ff,%eax
c0109ac5:	8d 14 85 00 00 00 00 	lea    0x0(,%eax,4),%edx
c0109acc:	8b 45 ec             	mov    -0x14(%ebp),%eax
c0109acf:	c1 e0 02             	shl    $0x2,%eax
c0109ad2:	25 00 f0 3f 00       	and    $0x3ff000,%eax
c0109ad7:	0d 00 00 80 af       	or     $0xaf800000,%eax
c0109adc:	01 d0                	add    %edx,%eax
c0109ade:	89 45 d4             	mov    %eax,-0x2c(%ebp)
            cpu_invplg(newproc);
c0109ae1:	83 ec 0c             	sub    $0xc,%esp
c0109ae4:	ff 75 d4             	push   -0x2c(%ebp)
c0109ae7:	e8 6e fb ff ff       	call   c010965a <cpu_invplg>
c0109aec:	83 c4 10             	add    $0x10,%esp

            if (pos->attr == REGION_RSHARED) {
c0109aef:	8b 45 f4             	mov    -0xc(%ebp),%eax
c0109af2:	8b 40 10             	mov    0x10(%eax),%eax
c0109af5:	83 f8 01             	cmp    $0x1,%eax
c0109af8:	75 2e                	jne    c0109b28 <m_fork+0x1ea>
                // 如果读共享，则将两者的都标注为只读，那么任何写入都将会应用COW策略。
                cpu_invplg(curproc);
c0109afa:	83 ec 0c             	sub    $0xc,%esp
c0109afd:	ff 75 d8             	push   -0x28(%ebp)
c0109b00:	e8 55 fb ff ff       	call   c010965a <cpu_invplg>
c0109b05:	83 c4 10             	add    $0x10,%esp
                *curproc = *curproc & ~PG_WRITE;
c0109b08:	8b 45 d8             	mov    -0x28(%ebp),%eax
c0109b0b:	8b 00                	mov    (%eax),%eax
c0109b0d:	83 e0 fd             	and    $0xfffffffd,%eax
c0109b10:	89 c2                	mov    %eax,%edx
c0109b12:	8b 45 d8             	mov    -0x28(%ebp),%eax
c0109b15:	89 10                	mov    %edx,(%eax)
                *newproc = *newproc & ~PG_WRITE;
c0109b17:	8b 45 d4             	mov    -0x2c(%ebp),%eax
c0109b1a:	8b 00                	mov    (%eax),%eax
c0109b1c:	83 e0 fd             	and    $0xfffffffd,%eax
c0109b1f:	89 c2                	mov    %eax,%edx
c0109b21:	8b 45 d4             	mov    -0x2c(%ebp),%eax
c0109b24:	89 10                	mov    %edx,(%eax)
c0109b26:	eb 09                	jmp    c0109b31 <m_fork+0x1f3>
            } else {
                // 如果是私有页，则将该页从新进程中移除。
                *newproc = 0;
c0109b28:	8b 45 d4             	mov    -0x2c(%ebp),%eax
c0109b2b:	c7 00 00 00 00 00    	movl   $0x0,(%eax)
        for (size_t i = start_vpn; i < end_vpn; i++) {
c0109b31:	83 45 ec 01          	addl   $0x1,-0x14(%ebp)
c0109b35:	8b 45 ec             	mov    -0x14(%ebp),%eax
c0109b38:	3b 45 dc             	cmp    -0x24(%ebp),%eax
c0109b3b:	0f 82 58 ff ff ff    	jb     c0109a99 <m_fork+0x15b>
c0109b41:	eb 01                	jmp    c0109b44 <m_fork+0x206>
            continue;
c0109b43:	90                   	nop
    llist_for_each(pos, n, &__current->process_mm->head, head)
c0109b44:	8b 45 f0             	mov    -0x10(%ebp),%eax
c0109b47:	89 45 f4             	mov    %eax,-0xc(%ebp)
c0109b4a:	8b 45 f0             	mov    -0x10(%ebp),%eax
c0109b4d:	8b 40 04             	mov    0x4(%eax),%eax
c0109b50:	89 45 d0             	mov    %eax,-0x30(%ebp)
c0109b53:	8b 45 d0             	mov    -0x30(%ebp),%eax
c0109b56:	89 45 f0             	mov    %eax,-0x10(%ebp)
c0109b59:	a1 80 c1 d0 c0       	mov    0xc0d0c180,%eax
c0109b5e:	8b 40 58             	mov    0x58(%eax),%eax
c0109b61:	39 45 f4             	cmp    %eax,-0xc(%ebp)
c0109b64:	0f 85 d7 fe ff ff    	jne    c0109a41 <m_fork+0x103>
            }
        }
    }

not_copy:
c0109b6a:	eb 01                	jmp    c0109b6d <m_fork+0x22f>
        goto not_copy;
c0109b6c:	90                   	nop
    vmm_unmount_pd(PD_MOUNT_2);
c0109b6d:	83 ec 0c             	sub    $0xc,%esp
c0109b70:	68 00 00 80 af       	push   $0xaf800000
c0109b75:	e8 e0 df ff ff       	call   c0107b5a <vmm_unmount_pd>
c0109b7a:	83 c4 10             	add    $0x10,%esp
    vmm_unmount_pd(PD_MOUNT_1);
c0109b7d:	83 ec 0c             	sub    $0xc,%esp
c0109b80:	68 00 00 c0 af       	push   $0xafc00000
c0109b85:	e8 d0 df ff ff       	call   c0107b5a <vmm_unmount_pd>
c0109b8a:	83 c4 10             	add    $0x10,%esp
    vmm_unmount_pd(PG_MOUNT_2);
c0109b8d:	83 ec 0c             	sub    $0xc,%esp
c0109b90:	68 00 e0 7f af       	push   $0xaf7fe000
c0109b95:	e8 c0 df ff ff       	call   c0107b5a <vmm_unmount_pd>
c0109b9a:	83 c4 10             	add    $0x10,%esp
    // 正如同fork，返回两次。
    curr_pcb.intr_contxt.registers.eax = 0;
c0109b9d:	c7 85 6c ff ff ff 00 	movl   $0x0,-0x94(%ebp)
c0109ba4:	00 00 00 

    push_process(&curr_pcb);
c0109ba7:	83 ec 0c             	sub    $0xc,%esp
c0109baa:	8d 85 64 ff ff ff    	lea    -0x9c(%ebp),%eax
c0109bb0:	50                   	push   %eax
c0109bb1:	e8 22 03 00 00       	call   c0109ed8 <push_process>
c0109bb6:	83 c4 10             	add    $0x10,%esp

    return curr_pcb.pid;
c0109bb9:	8b 85 64 ff ff ff    	mov    -0x9c(%ebp),%eax
}
c0109bbf:	c9                   	leave  
c0109bc0:	c3                   	ret    

c0109bc1 <__del_pagetable>:

void __del_pagetable(pid_t pid, uintptr_t mount_point)
{
c0109bc1:	55                   	push   %ebp
c0109bc2:	89 e5                	mov    %esp,%ebp
c0109bc4:	83 ec 28             	sub    $0x28,%esp
    ptd_t* pptd = (ptd_t*)(mount_point | (0x3FF << 12));
c0109bc7:	8b 45 0c             	mov    0xc(%ebp),%eax
c0109bca:	0d 00 f0 3f 00       	or     $0x3ff000,%eax
c0109bcf:	89 45 ec             	mov    %eax,-0x14(%ebp)

    for (size_t i = 0; i < PG_MAX_ENTRIES - 1; i++) {
c0109bd2:	c7 45 f4 00 00 00 00 	movl   $0x0,-0xc(%ebp)
c0109bd9:	e9 99 00 00 00       	jmp    c0109c77 <__del_pagetable+0xb6>
        ptd_t ptde = pptd[i];
c0109bde:	8b 45 f4             	mov    -0xc(%ebp),%eax
c0109be1:	8d 14 85 00 00 00 00 	lea    0x0(,%eax,4),%edx
c0109be8:	8b 45 ec             	mov    -0x14(%ebp),%eax
c0109beb:	01 d0                	add    %edx,%eax
c0109bed:	8b 00                	mov    (%eax),%eax
c0109bef:	89 45 e8             	mov    %eax,-0x18(%ebp)
        if (!ptde || !(ptde & PG_PRESENT)) {
c0109bf2:	83 7d e8 00          	cmpl   $0x0,-0x18(%ebp)
c0109bf6:	74 7a                	je     c0109c72 <__del_pagetable+0xb1>
c0109bf8:	8b 45 e8             	mov    -0x18(%ebp),%eax
c0109bfb:	83 e0 01             	and    $0x1,%eax
c0109bfe:	85 c0                	test   %eax,%eax
c0109c00:	74 70                	je     c0109c72 <__del_pagetable+0xb1>
            continue;
        }

        pt_t* ppt = (pt_t*)(mount_point | (i << 12));
c0109c02:	8b 45 f4             	mov    -0xc(%ebp),%eax
c0109c05:	c1 e0 0c             	shl    $0xc,%eax
c0109c08:	0b 45 0c             	or     0xc(%ebp),%eax
c0109c0b:	89 45 e4             	mov    %eax,-0x1c(%ebp)

        for (size_t j = 0; j < PG_MAX_ENTRIES; j++) {
c0109c0e:	c7 45 f0 00 00 00 00 	movl   $0x0,-0x10(%ebp)
c0109c15:	eb 39                	jmp    c0109c50 <__del_pagetable+0x8f>
            pt_t pte = ppt[j];
c0109c17:	8b 45 f0             	mov    -0x10(%ebp),%eax
c0109c1a:	8d 14 85 00 00 00 00 	lea    0x0(,%eax,4),%edx
c0109c21:	8b 45 e4             	mov    -0x1c(%ebp),%eax
c0109c24:	01 d0                	add    %edx,%eax
c0109c26:	8b 00                	mov    (%eax),%eax
c0109c28:	89 45 e0             	mov    %eax,-0x20(%ebp)
            // free the 4KB data page
            if ((pte & PG_PRESENT)) {
c0109c2b:	8b 45 e0             	mov    -0x20(%ebp),%eax
c0109c2e:	83 e0 01             	and    $0x1,%eax
c0109c31:	85 c0                	test   %eax,%eax
c0109c33:	74 17                	je     c0109c4c <__del_pagetable+0x8b>
                pmm_free_page(pid, PG_ENTRY_ADDR(pte));
c0109c35:	8b 45 e0             	mov    -0x20(%ebp),%eax
c0109c38:	25 00 f0 ff ff       	and    $0xfffff000,%eax
c0109c3d:	83 ec 08             	sub    $0x8,%esp
c0109c40:	50                   	push   %eax
c0109c41:	ff 75 08             	push   0x8(%ebp)
c0109c44:	e8 69 cd ff ff       	call   c01069b2 <pmm_free_page>
c0109c49:	83 c4 10             	add    $0x10,%esp
        for (size_t j = 0; j < PG_MAX_ENTRIES; j++) {
c0109c4c:	83 45 f0 01          	addl   $0x1,-0x10(%ebp)
c0109c50:	81 7d f0 ff 03 00 00 	cmpl   $0x3ff,-0x10(%ebp)
c0109c57:	76 be                	jbe    c0109c17 <__del_pagetable+0x56>
            }
        }
        // free the L2 page table
        pmm_free_page(pid, PG_ENTRY_ADDR(ptde));
c0109c59:	8b 45 e8             	mov    -0x18(%ebp),%eax
c0109c5c:	25 00 f0 ff ff       	and    $0xfffff000,%eax
c0109c61:	83 ec 08             	sub    $0x8,%esp
c0109c64:	50                   	push   %eax
c0109c65:	ff 75 08             	push   0x8(%ebp)
c0109c68:	e8 45 cd ff ff       	call   c01069b2 <pmm_free_page>
c0109c6d:	83 c4 10             	add    $0x10,%esp
c0109c70:	eb 01                	jmp    c0109c73 <__del_pagetable+0xb2>
            continue;
c0109c72:	90                   	nop
    for (size_t i = 0; i < PG_MAX_ENTRIES - 1; i++) {
c0109c73:	83 45 f4 01          	addl   $0x1,-0xc(%ebp)
c0109c77:	81 7d f4 fe 03 00 00 	cmpl   $0x3fe,-0xc(%ebp)
c0109c7e:	0f 86 5a ff ff ff    	jbe    c0109bde <__del_pagetable+0x1d>
    }
    // free the L1 directory
    pmm_free_page(pid, PG_ENTRY_ADDR(pptd[PG_MAX_ENTRIES - 1]));
c0109c84:	8b 45 ec             	mov    -0x14(%ebp),%eax
c0109c87:	05 fc 0f 00 00       	add    $0xffc,%eax
c0109c8c:	8b 00                	mov    (%eax),%eax
c0109c8e:	25 00 f0 ff ff       	and    $0xfffff000,%eax
c0109c93:	83 ec 08             	sub    $0x8,%esp
c0109c96:	50                   	push   %eax
c0109c97:	ff 75 08             	push   0x8(%ebp)
c0109c9a:	e8 13 cd ff ff       	call   c01069b2 <pmm_free_page>
c0109c9f:	83 c4 10             	add    $0x10,%esp
c0109ca2:	90                   	nop
c0109ca3:	c9                   	leave  
c0109ca4:	c3                   	ret    

c0109ca5 <__llist_add>:
{
c0109ca5:	55                   	push   %ebp
c0109ca6:	89 e5                	mov    %esp,%ebp
    next->prev = elem;
c0109ca8:	8b 45 10             	mov    0x10(%ebp),%eax
c0109cab:	8b 55 08             	mov    0x8(%ebp),%edx
c0109cae:	89 10                	mov    %edx,(%eax)
    elem->next = next;
c0109cb0:	8b 45 08             	mov    0x8(%ebp),%eax
c0109cb3:	8b 55 10             	mov    0x10(%ebp),%edx
c0109cb6:	89 50 04             	mov    %edx,0x4(%eax)
    elem->prev = prev;
c0109cb9:	8b 45 08             	mov    0x8(%ebp),%eax
c0109cbc:	8b 55 0c             	mov    0xc(%ebp),%edx
c0109cbf:	89 10                	mov    %edx,(%eax)
    prev->next = elem;
c0109cc1:	8b 45 0c             	mov    0xc(%ebp),%eax
c0109cc4:	8b 55 08             	mov    0x8(%ebp),%edx
c0109cc7:	89 50 04             	mov    %edx,0x4(%eax)
}
c0109cca:	90                   	nop
c0109ccb:	5d                   	pop    %ebp
c0109ccc:	c3                   	ret    

c0109ccd <llist_init_head>:
static inline void llist_init_head(struct llist_header* head) {
c0109ccd:	55                   	push   %ebp
c0109cce:	89 e5                	mov    %esp,%ebp
    head->next = head;
c0109cd0:	8b 45 08             	mov    0x8(%ebp),%eax
c0109cd3:	8b 55 08             	mov    0x8(%ebp),%edx
c0109cd6:	89 50 04             	mov    %edx,0x4(%eax)
    head->prev = head;
c0109cd9:	8b 45 08             	mov    0x8(%ebp),%eax
c0109cdc:	8b 55 08             	mov    0x8(%ebp),%edx
c0109cdf:	89 10                	mov    %edx,(%eax)
}
c0109ce1:	90                   	nop
c0109ce2:	5d                   	pop    %ebp
c0109ce3:	c3                   	ret    

c0109ce4 <llist_append>:
{
c0109ce4:	55                   	push   %ebp
c0109ce5:	89 e5                	mov    %esp,%ebp
    __llist_add(elem, head, head->next);
c0109ce7:	8b 45 08             	mov    0x8(%ebp),%eax
c0109cea:	8b 40 04             	mov    0x4(%eax),%eax
c0109ced:	50                   	push   %eax
c0109cee:	ff 75 08             	push   0x8(%ebp)
c0109cf1:	ff 75 0c             	push   0xc(%ebp)
c0109cf4:	e8 ac ff ff ff       	call   c0109ca5 <__llist_add>
c0109cf9:	83 c4 0c             	add    $0xc,%esp
}
c0109cfc:	90                   	nop
c0109cfd:	c9                   	leave  
c0109cfe:	c3                   	ret    

c0109cff <llist_empty>:

static inline int llist_empty(struct llist_header* elem) {
c0109cff:	55                   	push   %ebp
c0109d00:	89 e5                	mov    %esp,%ebp
    return elem->next == elem;
c0109d02:	8b 45 08             	mov    0x8(%ebp),%eax
c0109d05:	8b 40 04             	mov    0x4(%eax),%eax
c0109d08:	39 45 08             	cmp    %eax,0x8(%ebp)
c0109d0b:	0f 94 c0             	sete   %al
c0109d0e:	0f b6 c0             	movzbl %al,%eax
}
c0109d11:	5d                   	pop    %ebp
c0109d12:	c3                   	ret    

c0109d13 <llist_delete>:

static inline void
llist_delete(struct llist_header* elem) {
c0109d13:	55                   	push   %ebp
c0109d14:	89 e5                	mov    %esp,%ebp
    elem->prev->next = elem->next;
c0109d16:	8b 45 08             	mov    0x8(%ebp),%eax
c0109d19:	8b 00                	mov    (%eax),%eax
c0109d1b:	8b 55 08             	mov    0x8(%ebp),%edx
c0109d1e:	8b 52 04             	mov    0x4(%edx),%edx
c0109d21:	89 50 04             	mov    %edx,0x4(%eax)
    elem->next->prev = elem->next;
c0109d24:	8b 45 08             	mov    0x8(%ebp),%eax
c0109d27:	8b 40 04             	mov    0x4(%eax),%eax
c0109d2a:	8b 55 08             	mov    0x8(%ebp),%edx
c0109d2d:	8b 52 04             	mov    0x4(%edx),%edx
c0109d30:	89 10                	mov    %edx,(%eax)
    
    // make elem orphaned
    elem->prev = elem;
c0109d32:	8b 45 08             	mov    0x8(%ebp),%eax
c0109d35:	8b 55 08             	mov    0x8(%ebp),%edx
c0109d38:	89 10                	mov    %edx,(%eax)
    elem->next = elem;
c0109d3a:	8b 45 08             	mov    0x8(%ebp),%eax
c0109d3d:	8b 55 08             	mov    0x8(%ebp),%edx
c0109d40:	89 50 04             	mov    %edx,0x4(%eax)
}
c0109d43:	90                   	nop
c0109d44:	5d                   	pop    %ebp
c0109d45:	c3                   	ret    

c0109d46 <syscall>:
{
c0109d46:	55                   	push   %ebp
c0109d47:	89 e5                	mov    %esp,%ebp
c0109d49:	57                   	push   %edi
    asm volatile("int %0" ::"i"(0x80), "D"(callcode) : "eax");
c0109d4a:	8b 55 08             	mov    0x8(%ebp),%edx
c0109d4d:	89 d7                	mov    %edx,%edi
c0109d4f:	cd 80                	int    $0x80
}
c0109d51:	90                   	nop
c0109d52:	8b 7d fc             	mov    -0x4(%ebp),%edi
c0109d55:	c9                   	leave  
c0109d56:	c3                   	ret    

c0109d57 <sched_init>:
extern void __proc_table;

struct scheduler sched_ctx;

int sched_init()
{
c0109d57:	55                   	push   %ebp
c0109d58:	89 e5                	mov    %esp,%ebp
c0109d5a:	83 ec 18             	sub    $0x18,%esp
    size_t pg_size = ROUNDUP(sizeof(struct m_pcb) * MAX_PROCESS, 0x1000);
c0109d5d:	c7 45 f4 00 e0 00 00 	movl   $0xe000,-0xc(%ebp)
    if(vmm_alloc_pages(KERNEL_PID, &__proc_table, pg_size, PG_PREM_RW, PP_FGPERSIST)){
c0109d64:	83 ec 0c             	sub    $0xc,%esp
c0109d67:	6a 01                	push   $0x1
c0109d69:	6a 03                	push   $0x3
c0109d6b:	ff 75 f4             	push   -0xc(%ebp)
c0109d6e:	68 00 90 d1 c0       	push   $0xc0d19000
c0109d73:	6a ff                	push   $0xffffffff
c0109d75:	e8 0e da ff ff       	call   c0107788 <vmm_alloc_pages>
c0109d7a:	83 c4 20             	add    $0x20,%esp
c0109d7d:	85 c0                	test   %eax,%eax
c0109d7f:	74 25                	je     c0109da6 <sched_init+0x4f>
        sched_ctx = (struct scheduler){ ._procs = (struct m_pcb*)&__proc_table,
c0109d81:	c7 05 0c c2 d0 c0 00 	movl   $0xc0d19000,0xc0d0c20c
c0109d88:	90 d1 c0 
c0109d8b:	c7 05 10 c2 d0 c0 00 	movl   $0x0,0xc0d0c210
c0109d92:	00 00 00 
c0109d95:	c7 05 14 c2 d0 c0 00 	movl   $0x0,0xc0d0c214
c0109d9c:	00 00 00 
                                    .ptable_len = 0,
                                    .procs_index = 0 };
                                    return 1;}
c0109d9f:	b8 01 00 00 00       	mov    $0x1,%eax
c0109da4:	eb 05                	jmp    c0109dab <sched_init+0x54>
    return 0;
c0109da6:	b8 00 00 00 00       	mov    $0x0,%eax
    
}
c0109dab:	c9                   	leave  
c0109dac:	c3                   	ret    

c0109dad <run>:

void run(struct m_pcb* proc)
{
c0109dad:	55                   	push   %ebp
c0109dae:	89 e5                	mov    %esp,%ebp
    if (!(__current->state & ~PROC_RUNNING)) {
c0109db0:	a1 80 c1 d0 c0       	mov    0xc0d0c180,%eax
c0109db5:	0f b6 40 44          	movzbl 0x44(%eax),%eax
c0109db9:	0f b6 c0             	movzbl %al,%eax
c0109dbc:	83 e0 fe             	and    $0xfffffffe,%eax
c0109dbf:	85 c0                	test   %eax,%eax
c0109dc1:	75 09                	jne    c0109dcc <run+0x1f>
        __current->state = PROC_STOPPED;
c0109dc3:	a1 80 c1 d0 c0       	mov    0xc0d0c180,%eax
c0109dc8:	c6 40 44 00          	movb   $0x0,0x44(%eax)
    }
    proc->state = PROC_RUNNING;
c0109dcc:	8b 45 08             	mov    0x8(%ebp),%eax
c0109dcf:	c6 40 44 01          	movb   $0x1,0x44(%eax)


    if (__current->page_table != proc->page_table) {
c0109dd3:	a1 80 c1 d0 c0       	mov    0xc0d0c180,%eax
c0109dd8:	8b 50 64             	mov    0x64(%eax),%edx
c0109ddb:	8b 45 08             	mov    0x8(%ebp),%eax
c0109dde:	8b 40 64             	mov    0x64(%eax),%eax
c0109de1:	39 c2                	cmp    %eax,%edx
c0109de3:	74 15                	je     c0109dfa <run+0x4d>
        __current = proc;
c0109de5:	8b 45 08             	mov    0x8(%ebp),%eax
c0109de8:	a3 80 c1 d0 c0       	mov    %eax,0xc0d0c180
        //asm("cli");
        //__asm__("movl %%ebx,%%cr3"::"b" (__current->page_table));
        __asm__("mov %0, %%cr3" ::"r"(__current->page_table));
c0109ded:	a1 80 c1 d0 c0       	mov    0xc0d0c180,%eax
c0109df2:	8b 40 64             	mov    0x64(%eax),%eax
c0109df5:	0f 22 d8             	mov    %eax,%cr3
c0109df8:	eb 08                	jmp    c0109e02 <run+0x55>
        //cpu_lcr3(__current->page_table);
        //asm("sti");
    } else {
        __current = proc;
c0109dfa:	8b 45 08             	mov    0x8(%ebp),%eax
c0109dfd:	a3 80 c1 d0 c0       	mov    %eax,0xc0d0c180

    // io_outb(0x20, 0x20);
    // io_outb(0xa0, 0x20);//EOI end the int

    asm volatile("pushl %0\n"
                 "jmp soft_iret\n" ::"r"(&__current->intr_contxt)
c0109e02:	a1 80 c1 d0 c0       	mov    0xc0d0c180,%eax
c0109e07:	83 c0 08             	add    $0x8,%eax
    asm volatile("pushl %0\n"
c0109e0a:	50                   	push   %eax
c0109e0b:	e9 d0 e3 ff ff       	jmp    c01081e0 <soft_iret>
                 : "memory");
}
c0109e10:	90                   	nop
c0109e11:	5d                   	pop    %ebp
c0109e12:	c3                   	ret    

c0109e13 <schedule>:

void schedule()
{
c0109e13:	55                   	push   %ebp
c0109e14:	89 e5                	mov    %esp,%ebp
c0109e16:	83 ec 10             	sub    $0x10,%esp
    if (!sched_ctx.ptable_len) {
c0109e19:	a1 14 c2 d0 c0       	mov    0xc0d0c214,%eax
c0109e1e:	85 c0                	test   %eax,%eax
c0109e20:	74 5f                	je     c0109e81 <schedule+0x6e>
        return;
    }

    struct m_pcb* next;
    int prev_ptr = sched_ctx.procs_index;
c0109e22:	a1 10 c2 d0 c0       	mov    0xc0d0c210,%eax
c0109e27:	89 45 f8             	mov    %eax,-0x8(%ebp)
    int ptr = prev_ptr;
c0109e2a:	8b 45 f8             	mov    -0x8(%ebp),%eax
c0109e2d:	89 45 fc             	mov    %eax,-0x4(%ebp)
    // round-robin scheduler
    do {
        ptr = (ptr + 1) % sched_ctx.ptable_len;
c0109e30:	8b 45 fc             	mov    -0x4(%ebp),%eax
c0109e33:	83 c0 01             	add    $0x1,%eax
c0109e36:	8b 0d 14 c2 d0 c0    	mov    0xc0d0c214,%ecx
c0109e3c:	ba 00 00 00 00       	mov    $0x0,%edx
c0109e41:	f7 f1                	div    %ecx
c0109e43:	89 d0                	mov    %edx,%eax
c0109e45:	89 45 fc             	mov    %eax,-0x4(%ebp)
        next = &sched_ctx._procs[ptr];
c0109e48:	8b 15 0c c2 d0 c0    	mov    0xc0d0c20c,%edx
c0109e4e:	8b 45 fc             	mov    -0x4(%ebp),%eax
c0109e51:	6b c0 6c             	imul   $0x6c,%eax,%eax
c0109e54:	01 d0                	add    %edx,%eax
c0109e56:	89 45 f4             	mov    %eax,-0xc(%ebp)
    } while (next->state != PROC_STOPPED && ptr != prev_ptr);
c0109e59:	8b 45 f4             	mov    -0xc(%ebp),%eax
c0109e5c:	0f b6 40 44          	movzbl 0x44(%eax),%eax
c0109e60:	84 c0                	test   %al,%al
c0109e62:	74 08                	je     c0109e6c <schedule+0x59>
c0109e64:	8b 45 fc             	mov    -0x4(%ebp),%eax
c0109e67:	3b 45 f8             	cmp    -0x8(%ebp),%eax
c0109e6a:	75 c4                	jne    c0109e30 <schedule+0x1d>

    sched_ctx.procs_index = ptr;
c0109e6c:	8b 45 fc             	mov    -0x4(%ebp),%eax
c0109e6f:	a3 10 c2 d0 c0       	mov    %eax,0xc0d0c210

    run(next);
c0109e74:	ff 75 f4             	push   -0xc(%ebp)
c0109e77:	e8 31 ff ff ff       	call   c0109dad <run>
c0109e7c:	83 c4 04             	add    $0x4,%esp
c0109e7f:	eb 01                	jmp    c0109e82 <schedule+0x6f>
        return;
c0109e81:	90                   	nop
}
c0109e82:	c9                   	leave  
c0109e83:	c3                   	ret    

c0109e84 <alloc_pid>:

pid_t alloc_pid()
{
c0109e84:	55                   	push   %ebp
c0109e85:	89 e5                	mov    %esp,%ebp
c0109e87:	83 ec 18             	sub    $0x18,%esp
    pid_t i = 0;
c0109e8a:	c7 45 f4 00 00 00 00 	movl   $0x0,-0xc(%ebp)
    for (;
c0109e91:	eb 04                	jmp    c0109e97 <alloc_pid+0x13>
         i < sched_ctx.ptable_len && sched_ctx._procs[i].state != PROC_DESTROY;
         i++)
c0109e93:	83 45 f4 01          	addl   $0x1,-0xc(%ebp)
         i < sched_ctx.ptable_len && sched_ctx._procs[i].state != PROC_DESTROY;
c0109e97:	8b 15 14 c2 d0 c0    	mov    0xc0d0c214,%edx
c0109e9d:	8b 45 f4             	mov    -0xc(%ebp),%eax
c0109ea0:	39 c2                	cmp    %eax,%edx
c0109ea2:	76 16                	jbe    c0109eba <alloc_pid+0x36>
c0109ea4:	8b 15 0c c2 d0 c0    	mov    0xc0d0c20c,%edx
c0109eaa:	8b 45 f4             	mov    -0xc(%ebp),%eax
c0109ead:	6b c0 6c             	imul   $0x6c,%eax,%eax
c0109eb0:	01 d0                	add    %edx,%eax
c0109eb2:	0f b6 40 44          	movzbl 0x44(%eax),%eax
c0109eb6:	3c 04                	cmp    $0x4,%al
c0109eb8:	75 d9                	jne    c0109e93 <alloc_pid+0xf>
        ;

    if (i == MAX_PROCESS) {
c0109eba:	81 7d f4 00 02 00 00 	cmpl   $0x200,-0xc(%ebp)
c0109ec1:	75 10                	jne    c0109ed3 <alloc_pid+0x4f>
        kprintf("Panic in Ponyville shimmer!");
c0109ec3:	83 ec 0c             	sub    $0xc,%esp
c0109ec6:	68 68 e6 d0 c0       	push   $0xc0d0e668
c0109ecb:	e8 f0 02 00 00       	call   c010a1c0 <kprintf>
c0109ed0:	83 c4 10             	add    $0x10,%esp
    }
    return i;
c0109ed3:	8b 45 f4             	mov    -0xc(%ebp),%eax
}
c0109ed6:	c9                   	leave  
c0109ed7:	c3                   	ret    

c0109ed8 <push_process>:

void
push_process(struct m_pcb* process)
{
c0109ed8:	55                   	push   %ebp
c0109ed9:	89 e5                	mov    %esp,%ebp
c0109edb:	57                   	push   %edi
c0109edc:	56                   	push   %esi
c0109edd:	53                   	push   %ebx
c0109ede:	83 ec 10             	sub    $0x10,%esp
    int index = process->pid;
c0109ee1:	8b 45 08             	mov    0x8(%ebp),%eax
c0109ee4:	8b 00                	mov    (%eax),%eax
c0109ee6:	89 45 f0             	mov    %eax,-0x10(%ebp)
    if (index < 0 || index > sched_ctx.ptable_len) {
c0109ee9:	83 7d f0 00          	cmpl   $0x0,-0x10(%ebp)
c0109eed:	78 0d                	js     c0109efc <push_process+0x24>
c0109eef:	8b 15 14 c2 d0 c0    	mov    0xc0d0c214,%edx
c0109ef5:	8b 45 f0             	mov    -0x10(%ebp),%eax
c0109ef8:	39 c2                	cmp    %eax,%edx
c0109efa:	73 11                	jae    c0109f0d <push_process+0x35>
        __current->k_status = MXINVLDPID;
c0109efc:	a1 80 c1 d0 c0       	mov    0xc0d0c180,%eax
c0109f01:	c7 40 68 fc ff ff ff 	movl   $0xfffffffc,0x68(%eax)
        return;
c0109f08:	e9 92 00 00 00       	jmp    c0109f9f <push_process+0xc7>
    }

    if (index == sched_ctx.ptable_len) {
c0109f0d:	8b 15 14 c2 d0 c0    	mov    0xc0d0c214,%edx
c0109f13:	8b 45 f0             	mov    -0x10(%ebp),%eax
c0109f16:	39 c2                	cmp    %eax,%edx
c0109f18:	75 0d                	jne    c0109f27 <push_process+0x4f>
        sched_ctx.ptable_len++;
c0109f1a:	a1 14 c2 d0 c0       	mov    0xc0d0c214,%eax
c0109f1f:	83 c0 01             	add    $0x1,%eax
c0109f22:	a3 14 c2 d0 c0       	mov    %eax,0xc0d0c214
    }

    sched_ctx._procs[index] = *process;
c0109f27:	8b 15 0c c2 d0 c0    	mov    0xc0d0c20c,%edx
c0109f2d:	8b 45 f0             	mov    -0x10(%ebp),%eax
c0109f30:	6b c0 6c             	imul   $0x6c,%eax,%eax
c0109f33:	01 c2                	add    %eax,%edx
c0109f35:	8b 45 08             	mov    0x8(%ebp),%eax
c0109f38:	89 c3                	mov    %eax,%ebx
c0109f3a:	b8 1b 00 00 00       	mov    $0x1b,%eax
c0109f3f:	89 d7                	mov    %edx,%edi
c0109f41:	89 de                	mov    %ebx,%esi
c0109f43:	89 c1                	mov    %eax,%ecx
c0109f45:	f3 a5                	rep movsl %ds:(%esi),%es:(%edi)

    process = &sched_ctx._procs[index];
c0109f47:	8b 15 0c c2 d0 c0    	mov    0xc0d0c20c,%edx
c0109f4d:	8b 45 f0             	mov    -0x10(%ebp),%eax
c0109f50:	6b c0 6c             	imul   $0x6c,%eax,%eax
c0109f53:	01 d0                	add    %edx,%eax
c0109f55:	89 45 08             	mov    %eax,0x8(%ebp)

    // make sure the address is in the range of process table
    llist_init_head(&process->children);
c0109f58:	8b 45 08             	mov    0x8(%ebp),%eax
c0109f5b:	83 c0 50             	add    $0x50,%eax
c0109f5e:	50                   	push   %eax
c0109f5f:	e8 69 fd ff ff       	call   c0109ccd <llist_init_head>
c0109f64:	83 c4 04             	add    $0x4,%esp
    // every process is the child of first process (pid=1)
    if (process->parent) {
c0109f67:	8b 45 08             	mov    0x8(%ebp),%eax
c0109f6a:	8b 40 04             	mov    0x4(%eax),%eax
c0109f6d:	85 c0                	test   %eax,%eax
c0109f6f:	74 1b                	je     c0109f8c <push_process+0xb4>
        llist_append(&process->parent->children, &process->siblings);
c0109f71:	8b 45 08             	mov    0x8(%ebp),%eax
c0109f74:	8d 50 48             	lea    0x48(%eax),%edx
c0109f77:	8b 45 08             	mov    0x8(%ebp),%eax
c0109f7a:	8b 40 04             	mov    0x4(%eax),%eax
c0109f7d:	83 c0 50             	add    $0x50,%eax
c0109f80:	52                   	push   %edx
c0109f81:	50                   	push   %eax
c0109f82:	e8 5d fd ff ff       	call   c0109ce4 <llist_append>
c0109f87:	83 c4 08             	add    $0x8,%esp
c0109f8a:	eb 0c                	jmp    c0109f98 <push_process+0xc0>
    } else {
        process->parent = &sched_ctx._procs[0];
c0109f8c:	8b 15 0c c2 d0 c0    	mov    0xc0d0c20c,%edx
c0109f92:	8b 45 08             	mov    0x8(%ebp),%eax
c0109f95:	89 50 04             	mov    %edx,0x4(%eax)
    }

    process->state = PROC_STOPPED;
c0109f98:	8b 45 08             	mov    0x8(%ebp),%eax
c0109f9b:	c6 40 44 00          	movb   $0x0,0x44(%eax)
}
c0109f9f:	8d 65 f4             	lea    -0xc(%ebp),%esp
c0109fa2:	5b                   	pop    %ebx
c0109fa3:	5e                   	pop    %esi
c0109fa4:	5f                   	pop    %edi
c0109fa5:	5d                   	pop    %ebp
c0109fa6:	c3                   	ret    

c0109fa7 <terminate_proc>:

void terminate_proc(int exit_code)
{
c0109fa7:	55                   	push   %ebp
c0109fa8:	89 e5                	mov    %esp,%ebp
    __current->state = PROC_TERMNAT;
c0109faa:	a1 80 c1 d0 c0       	mov    0xc0d0c180,%eax
c0109faf:	c6 40 44 02          	movb   $0x2,0x44(%eax)
    __current->exit_code = exit_code;
c0109fb3:	a1 80 c1 d0 c0       	mov    0xc0d0c180,%eax
c0109fb8:	8b 55 08             	mov    0x8(%ebp),%edx
c0109fbb:	89 50 60             	mov    %edx,0x60(%eax)

    schedule();
c0109fbe:	e8 50 fe ff ff       	call   c0109e13 <schedule>
}
c0109fc3:	90                   	nop
c0109fc4:	5d                   	pop    %ebp
c0109fc5:	c3                   	ret    

c0109fc6 <__mxsys_sleep>:

__DEFINE_MXSYSCALL1(unsigned int, sleep, unsigned int, seconds)
{
c0109fc6:	55                   	push   %ebp
c0109fc7:	89 e5                	mov    %esp,%ebp
    if (!seconds) {
c0109fc9:	83 7d 08 00          	cmpl   $0x0,0x8(%ebp)
c0109fcd:	75 07                	jne    c0109fd6 <__mxsys_sleep+0x10>
        return 0;
c0109fcf:	b8 00 00 00 00       	mov    $0x0,%eax
c0109fd4:	eb 2f                	jmp    c010a005 <__mxsys_sleep+0x3f>
    }
    if (__current->pro_ticks) {
c0109fd6:	a1 80 c1 d0 c0       	mov    0xc0d0c180,%eax
c0109fdb:	8b 40 5c             	mov    0x5c(%eax),%eax
c0109fde:	85 c0                	test   %eax,%eax
c0109fe0:	74 0a                	je     c0109fec <__mxsys_sleep+0x26>
        return __current->pro_ticks;
c0109fe2:	a1 80 c1 d0 c0       	mov    0xc0d0c180,%eax
c0109fe7:	8b 40 5c             	mov    0x5c(%eax),%eax
c0109fea:	eb 19                	jmp    c010a005 <__mxsys_sleep+0x3f>
    }

    __current->intr_contxt.registers.eax = seconds;
c0109fec:	a1 80 c1 d0 c0       	mov    0xc0d0c180,%eax
c0109ff1:	8b 55 08             	mov    0x8(%ebp),%edx
c0109ff4:	89 50 08             	mov    %edx,0x8(%eax)
    __current->state = PROC_BLOCKED;
c0109ff7:	a1 80 c1 d0 c0       	mov    0xc0d0c180,%eax
c0109ffc:	c6 40 44 08          	movb   $0x8,0x44(%eax)
    schedule();
c010a000:	e8 0e fe ff ff       	call   c0109e13 <schedule>
}
c010a005:	5d                   	pop    %ebp
c010a006:	c3                   	ret    

c010a007 <__mxsys_exit>:

__DEFINE_MXSYSCALL1(void, exit, int, status)
{
c010a007:	55                   	push   %ebp
c010a008:	89 e5                	mov    %esp,%ebp
    terminate_proc(status);
c010a00a:	ff 75 08             	push   0x8(%ebp)
c010a00d:	e8 95 ff ff ff       	call   c0109fa7 <terminate_proc>
c010a012:	83 c4 04             	add    $0x4,%esp
}
c010a015:	90                   	nop
c010a016:	c9                   	leave  
c010a017:	c3                   	ret    

c010a018 <__mxsys_yield>:

__DEFINE_MXSYSCALL(void, yield)
{
c010a018:	55                   	push   %ebp
c010a019:	89 e5                	mov    %esp,%ebp
    schedule();
c010a01b:	e8 f3 fd ff ff       	call   c0109e13 <schedule>
}
c010a020:	90                   	nop
c010a021:	5d                   	pop    %ebp
c010a022:	c3                   	ret    

c010a023 <__mxsys_wait>:

__DEFINE_MXSYSCALL1(pid_t, wait, int*, status)
{
c010a023:	55                   	push   %ebp
c010a024:	89 e5                	mov    %esp,%ebp
c010a026:	83 ec 28             	sub    $0x28,%esp
    pid_t cur = __current->pid;
c010a029:	a1 80 c1 d0 c0       	mov    0xc0d0c180,%eax
c010a02e:	8b 00                	mov    (%eax),%eax
c010a030:	89 45 ec             	mov    %eax,-0x14(%ebp)
    struct m_pcb *proc, *n;
    if (llist_empty(&__current->children)) {
c010a033:	a1 80 c1 d0 c0       	mov    0xc0d0c180,%eax
c010a038:	83 c0 50             	add    $0x50,%eax
c010a03b:	50                   	push   %eax
c010a03c:	e8 be fc ff ff       	call   c0109cff <llist_empty>
c010a041:	83 c4 04             	add    $0x4,%esp
c010a044:	85 c0                	test   %eax,%eax
c010a046:	74 07                	je     c010a04f <__mxsys_wait+0x2c>
        return -1;
c010a048:	b8 ff ff ff ff       	mov    $0xffffffff,%eax
c010a04d:	eb 7d                	jmp    c010a0cc <__mxsys_wait+0xa9>
    }
repeat:
c010a04f:	90                   	nop
    llist_for_each(proc, n, &__current->children, siblings)
c010a050:	a1 80 c1 d0 c0       	mov    0xc0d0c180,%eax
c010a055:	8b 40 54             	mov    0x54(%eax),%eax
c010a058:	89 45 e8             	mov    %eax,-0x18(%ebp)
c010a05b:	8b 45 e8             	mov    -0x18(%ebp),%eax
c010a05e:	83 e8 48             	sub    $0x48,%eax
c010a061:	89 45 f4             	mov    %eax,-0xc(%ebp)
c010a064:	8b 45 f4             	mov    -0xc(%ebp),%eax
c010a067:	8b 40 4c             	mov    0x4c(%eax),%eax
c010a06a:	89 45 e4             	mov    %eax,-0x1c(%ebp)
c010a06d:	8b 45 e4             	mov    -0x1c(%ebp),%eax
c010a070:	83 e8 48             	sub    $0x48,%eax
c010a073:	89 45 f0             	mov    %eax,-0x10(%ebp)
c010a076:	eb 23                	jmp    c010a09b <__mxsys_wait+0x78>
    {
        if (proc->state == PROC_TERMNAT) {
c010a078:	8b 45 f4             	mov    -0xc(%ebp),%eax
c010a07b:	0f b6 40 44          	movzbl 0x44(%eax),%eax
c010a07f:	3c 02                	cmp    $0x2,%al
c010a081:	74 2c                	je     c010a0af <__mxsys_wait+0x8c>
    llist_for_each(proc, n, &__current->children, siblings)
c010a083:	8b 45 f0             	mov    -0x10(%ebp),%eax
c010a086:	89 45 f4             	mov    %eax,-0xc(%ebp)
c010a089:	8b 45 f0             	mov    -0x10(%ebp),%eax
c010a08c:	8b 40 4c             	mov    0x4c(%eax),%eax
c010a08f:	89 45 e0             	mov    %eax,-0x20(%ebp)
c010a092:	8b 45 e0             	mov    -0x20(%ebp),%eax
c010a095:	83 e8 48             	sub    $0x48,%eax
c010a098:	89 45 f0             	mov    %eax,-0x10(%ebp)
c010a09b:	8b 45 f4             	mov    -0xc(%ebp),%eax
c010a09e:	8d 50 48             	lea    0x48(%eax),%edx
c010a0a1:	a1 80 c1 d0 c0       	mov    0xc0d0c180,%eax
c010a0a6:	83 c0 50             	add    $0x50,%eax
c010a0a9:	39 c2                	cmp    %eax,%edx
c010a0ab:	75 cb                	jne    c010a078 <__mxsys_wait+0x55>
            goto done;
        }
    }
    // FIXME: 除了循环，也许有更高效的办法……
    // (在这里进行schedule，需要重写context switch!)
    goto repeat;
c010a0ad:	eb a1                	jmp    c010a050 <__mxsys_wait+0x2d>
            goto done;
c010a0af:	90                   	nop

done:
    *status = proc->exit_code;
c010a0b0:	8b 45 f4             	mov    -0xc(%ebp),%eax
c010a0b3:	8b 50 60             	mov    0x60(%eax),%edx
c010a0b6:	8b 45 08             	mov    0x8(%ebp),%eax
c010a0b9:	89 10                	mov    %edx,(%eax)
    return destroy_process(proc->pid);
c010a0bb:	8b 45 f4             	mov    -0xc(%ebp),%eax
c010a0be:	8b 00                	mov    (%eax),%eax
c010a0c0:	83 ec 0c             	sub    $0xc,%esp
c010a0c3:	50                   	push   %eax
c010a0c4:	e8 05 00 00 00       	call   c010a0ce <destroy_process>
c010a0c9:	83 c4 10             	add    $0x10,%esp
}
c010a0cc:	c9                   	leave  
c010a0cd:	c3                   	ret    

c010a0ce <destroy_process>:

extern void __del_pagetable(pid_t pid, uintptr_t mount_point);

pid_t destroy_process(pid_t pid)
{
c010a0ce:	55                   	push   %ebp
c010a0cf:	89 e5                	mov    %esp,%ebp
c010a0d1:	83 ec 28             	sub    $0x28,%esp
    int index = pid;
c010a0d4:	8b 45 08             	mov    0x8(%ebp),%eax
c010a0d7:	89 45 ec             	mov    %eax,-0x14(%ebp)
    if (index <= 0 || index > sched_ctx.ptable_len) {
c010a0da:	83 7d ec 00          	cmpl   $0x0,-0x14(%ebp)
c010a0de:	7e 0d                	jle    c010a0ed <destroy_process+0x1f>
c010a0e0:	8b 15 14 c2 d0 c0    	mov    0xc0d0c214,%edx
c010a0e6:	8b 45 ec             	mov    -0x14(%ebp),%eax
c010a0e9:	39 c2                	cmp    %eax,%edx
c010a0eb:	73 12                	jae    c010a0ff <destroy_process+0x31>
        __current->k_status = MXINVLDPID;
c010a0ed:	a1 80 c1 d0 c0       	mov    0xc0d0c180,%eax
c010a0f2:	c7 40 68 fc ff ff ff 	movl   $0xfffffffc,0x68(%eax)
        return;
c010a0f9:	90                   	nop
c010a0fa:	e9 bf 00 00 00       	jmp    c010a1be <destroy_process+0xf0>
    }
    struct m_pcb* proc = &sched_ctx._procs[index];
c010a0ff:	8b 15 0c c2 d0 c0    	mov    0xc0d0c20c,%edx
c010a105:	8b 45 ec             	mov    -0x14(%ebp),%eax
c010a108:	6b c0 6c             	imul   $0x6c,%eax,%eax
c010a10b:	01 d0                	add    %edx,%eax
c010a10d:	89 45 e8             	mov    %eax,-0x18(%ebp)
    proc->state = PROC_DESTROY;
c010a110:	8b 45 e8             	mov    -0x18(%ebp),%eax
c010a113:	c6 40 44 04          	movb   $0x4,0x44(%eax)
    llist_delete(&proc->siblings);
c010a117:	8b 45 e8             	mov    -0x18(%ebp),%eax
c010a11a:	83 c0 48             	add    $0x48,%eax
c010a11d:	50                   	push   %eax
c010a11e:	e8 f0 fb ff ff       	call   c0109d13 <llist_delete>
c010a123:	83 c4 04             	add    $0x4,%esp

    if (proc->process_mm) {
c010a126:	8b 45 e8             	mov    -0x18(%ebp),%eax
c010a129:	8b 40 58             	mov    0x58(%eax),%eax
c010a12c:	85 c0                	test   %eax,%eax
c010a12e:	74 51                	je     c010a181 <destroy_process+0xb3>
        struct mm_region *pos, *n;
        llist_for_each(pos, n, &proc->process_mm->head, head)
c010a130:	8b 45 e8             	mov    -0x18(%ebp),%eax
c010a133:	8b 40 58             	mov    0x58(%eax),%eax
c010a136:	8b 40 04             	mov    0x4(%eax),%eax
c010a139:	89 45 e4             	mov    %eax,-0x1c(%ebp)
c010a13c:	8b 45 e4             	mov    -0x1c(%ebp),%eax
c010a13f:	89 45 f4             	mov    %eax,-0xc(%ebp)
c010a142:	8b 45 f4             	mov    -0xc(%ebp),%eax
c010a145:	8b 40 04             	mov    0x4(%eax),%eax
c010a148:	89 45 e0             	mov    %eax,-0x20(%ebp)
c010a14b:	8b 45 e0             	mov    -0x20(%ebp),%eax
c010a14e:	89 45 f0             	mov    %eax,-0x10(%ebp)
c010a151:	eb 23                	jmp    c010a176 <destroy_process+0xa8>
        {
            malloc_free(pos);
c010a153:	83 ec 0c             	sub    $0xc,%esp
c010a156:	ff 75 f4             	push   -0xc(%ebp)
c010a159:	e8 23 ce ff ff       	call   c0106f81 <malloc_free>
c010a15e:	83 c4 10             	add    $0x10,%esp
        llist_for_each(pos, n, &proc->process_mm->head, head)
c010a161:	8b 45 f0             	mov    -0x10(%ebp),%eax
c010a164:	89 45 f4             	mov    %eax,-0xc(%ebp)
c010a167:	8b 45 f0             	mov    -0x10(%ebp),%eax
c010a16a:	8b 40 04             	mov    0x4(%eax),%eax
c010a16d:	89 45 dc             	mov    %eax,-0x24(%ebp)
c010a170:	8b 45 dc             	mov    -0x24(%ebp),%eax
c010a173:	89 45 f0             	mov    %eax,-0x10(%ebp)
c010a176:	8b 45 e8             	mov    -0x18(%ebp),%eax
c010a179:	8b 40 58             	mov    0x58(%eax),%eax
c010a17c:	39 45 f4             	cmp    %eax,-0xc(%ebp)
c010a17f:	75 d2                	jne    c010a153 <destroy_process+0x85>
        }
    }

    vmm_mount_pd(PD_MOUNT_2, proc->page_table);
c010a181:	8b 45 e8             	mov    -0x18(%ebp),%eax
c010a184:	8b 40 64             	mov    0x64(%eax),%eax
c010a187:	83 ec 08             	sub    $0x8,%esp
c010a18a:	50                   	push   %eax
c010a18b:	68 00 00 80 af       	push   $0xaf800000
c010a190:	e8 86 d9 ff ff       	call   c0107b1b <vmm_mount_pd>
c010a195:	83 c4 10             	add    $0x10,%esp

    __del_pagetable(pid, PD_MOUNT_2);
c010a198:	83 ec 08             	sub    $0x8,%esp
c010a19b:	68 00 00 80 af       	push   $0xaf800000
c010a1a0:	ff 75 08             	push   0x8(%ebp)
c010a1a3:	e8 19 fa ff ff       	call   c0109bc1 <__del_pagetable>
c010a1a8:	83 c4 10             	add    $0x10,%esp

    vmm_unmount_pd(PD_MOUNT_2);
c010a1ab:	83 ec 0c             	sub    $0xc,%esp
c010a1ae:	68 00 00 80 af       	push   $0xaf800000
c010a1b3:	e8 a2 d9 ff ff       	call   c0107b5a <vmm_unmount_pd>
c010a1b8:	83 c4 10             	add    $0x10,%esp

    return pid;
c010a1bb:	8b 45 08             	mov    0x8(%ebp),%eax
c010a1be:	c9                   	leave  
c010a1bf:	c3                   	ret    

c010a1c0 <kprintf>:
#include <libs/mstdio.h>
#include <vga/vga.h>
void kprintf (const char *format, ...)
{
c010a1c0:	55                   	push   %ebp
c010a1c1:	89 e5                	mov    %esp,%ebp
c010a1c3:	83 ec 38             	sub    $0x38,%esp
  char **arg = (char **) &format;
c010a1c6:	8d 45 08             	lea    0x8(%ebp),%eax
c010a1c9:	89 45 f4             	mov    %eax,-0xc(%ebp)
  int c;
  char buf[20];

  arg++;
c010a1cc:	83 45 f4 04          	addl   $0x4,-0xc(%ebp)
  while ((c = *format++) != 0)
c010a1d0:	e9 83 01 00 00       	jmp    c010a358 <kprintf+0x198>
    {
      if (c != '%')
c010a1d5:	83 7d f0 25          	cmpl   $0x25,-0x10(%ebp)
c010a1d9:	74 17                	je     c010a1f2 <kprintf+0x32>
        vga_put_char (c);
c010a1db:	8b 45 f0             	mov    -0x10(%ebp),%eax
c010a1de:	0f be c0             	movsbl %al,%eax
c010a1e1:	83 ec 0c             	sub    $0xc,%esp
c010a1e4:	50                   	push   %eax
c010a1e5:	e8 34 be ff ff       	call   c010601e <vga_put_char>
c010a1ea:	83 c4 10             	add    $0x10,%esp
c010a1ed:	e9 66 01 00 00       	jmp    c010a358 <kprintf+0x198>
      else
        {
          char *p, *p2;
          int pad0 = 0, pad = 0;
c010a1f2:	c7 45 e4 00 00 00 00 	movl   $0x0,-0x1c(%ebp)
c010a1f9:	c7 45 e0 00 00 00 00 	movl   $0x0,-0x20(%ebp)
          
          c = *format++;
c010a200:	8b 45 08             	mov    0x8(%ebp),%eax
c010a203:	8d 50 01             	lea    0x1(%eax),%edx
c010a206:	89 55 08             	mov    %edx,0x8(%ebp)
c010a209:	0f b6 00             	movzbl (%eax),%eax
c010a20c:	0f be c0             	movsbl %al,%eax
c010a20f:	89 45 f0             	mov    %eax,-0x10(%ebp)
          if (c == '0')
c010a212:	83 7d f0 30          	cmpl   $0x30,-0x10(%ebp)
c010a216:	75 19                	jne    c010a231 <kprintf+0x71>
            {
              pad0 = 1;
c010a218:	c7 45 e4 01 00 00 00 	movl   $0x1,-0x1c(%ebp)
              c = *format++;
c010a21f:	8b 45 08             	mov    0x8(%ebp),%eax
c010a222:	8d 50 01             	lea    0x1(%eax),%edx
c010a225:	89 55 08             	mov    %edx,0x8(%ebp)
c010a228:	0f b6 00             	movzbl (%eax),%eax
c010a22b:	0f be c0             	movsbl %al,%eax
c010a22e:	89 45 f0             	mov    %eax,-0x10(%ebp)
            }

          if (c >= '0' && c <= '9')
c010a231:	83 7d f0 2f          	cmpl   $0x2f,-0x10(%ebp)
c010a235:	7e 21                	jle    c010a258 <kprintf+0x98>
c010a237:	83 7d f0 39          	cmpl   $0x39,-0x10(%ebp)
c010a23b:	7f 1b                	jg     c010a258 <kprintf+0x98>
            {
              pad = c - '0';
c010a23d:	8b 45 f0             	mov    -0x10(%ebp),%eax
c010a240:	83 e8 30             	sub    $0x30,%eax
c010a243:	89 45 e0             	mov    %eax,-0x20(%ebp)
              c = *format++;
c010a246:	8b 45 08             	mov    0x8(%ebp),%eax
c010a249:	8d 50 01             	lea    0x1(%eax),%edx
c010a24c:	89 55 08             	mov    %edx,0x8(%ebp)
c010a24f:	0f b6 00             	movzbl (%eax),%eax
c010a252:	0f be c0             	movsbl %al,%eax
c010a255:	89 45 f0             	mov    %eax,-0x10(%ebp)
            }

          switch (c)
c010a258:	83 7d f0 78          	cmpl   $0x78,-0x10(%ebp)
c010a25c:	74 2b                	je     c010a289 <kprintf+0xc9>
c010a25e:	83 7d f0 78          	cmpl   $0x78,-0x10(%ebp)
c010a262:	0f 8f d5 00 00 00    	jg     c010a33d <kprintf+0x17d>
c010a268:	83 7d f0 75          	cmpl   $0x75,-0x10(%ebp)
c010a26c:	74 1b                	je     c010a289 <kprintf+0xc9>
c010a26e:	83 7d f0 75          	cmpl   $0x75,-0x10(%ebp)
c010a272:	0f 8f c5 00 00 00    	jg     c010a33d <kprintf+0x17d>
c010a278:	83 7d f0 64          	cmpl   $0x64,-0x10(%ebp)
c010a27c:	74 0b                	je     c010a289 <kprintf+0xc9>
c010a27e:	83 7d f0 73          	cmpl   $0x73,-0x10(%ebp)
c010a282:	74 2b                	je     c010a2af <kprintf+0xef>
c010a284:	e9 b4 00 00 00       	jmp    c010a33d <kprintf+0x17d>
            {
            case 'd':
            case 'u':
            case 'x':
              itoa (buf, c, *((int *) arg++));
c010a289:	8b 45 f4             	mov    -0xc(%ebp),%eax
c010a28c:	8d 50 04             	lea    0x4(%eax),%edx
c010a28f:	89 55 f4             	mov    %edx,-0xc(%ebp)
c010a292:	8b 00                	mov    (%eax),%eax
c010a294:	83 ec 04             	sub    $0x4,%esp
c010a297:	50                   	push   %eax
c010a298:	ff 75 f0             	push   -0x10(%ebp)
c010a29b:	8d 45 cc             	lea    -0x34(%ebp),%eax
c010a29e:	50                   	push   %eax
c010a29f:	e8 d4 00 00 00       	call   c010a378 <itoa>
c010a2a4:	83 c4 10             	add    $0x10,%esp
              p = buf;
c010a2a7:	8d 45 cc             	lea    -0x34(%ebp),%eax
c010a2aa:	89 45 ec             	mov    %eax,-0x14(%ebp)
              goto string;
c010a2ad:	eb 1e                	jmp    c010a2cd <kprintf+0x10d>
              break;

            case 's':
              p = *arg++;
c010a2af:	8b 45 f4             	mov    -0xc(%ebp),%eax
c010a2b2:	8d 50 04             	lea    0x4(%eax),%edx
c010a2b5:	89 55 f4             	mov    %edx,-0xc(%ebp)
c010a2b8:	8b 00                	mov    (%eax),%eax
c010a2ba:	89 45 ec             	mov    %eax,-0x14(%ebp)
              if (! p)
c010a2bd:	83 7d ec 00          	cmpl   $0x0,-0x14(%ebp)
c010a2c1:	75 09                	jne    c010a2cc <kprintf+0x10c>
                p = "(null)";
c010a2c3:	c7 45 ec 84 e6 d0 c0 	movl   $0xc0d0e684,-0x14(%ebp)
c010a2ca:	eb 01                	jmp    c010a2cd <kprintf+0x10d>

            string:
c010a2cc:	90                   	nop
              for (p2 = p; *p2; p2++);
c010a2cd:	8b 45 ec             	mov    -0x14(%ebp),%eax
c010a2d0:	89 45 e8             	mov    %eax,-0x18(%ebp)
c010a2d3:	eb 04                	jmp    c010a2d9 <kprintf+0x119>
c010a2d5:	83 45 e8 01          	addl   $0x1,-0x18(%ebp)
c010a2d9:	8b 45 e8             	mov    -0x18(%ebp),%eax
c010a2dc:	0f b6 00             	movzbl (%eax),%eax
c010a2df:	84 c0                	test   %al,%al
c010a2e1:	75 f2                	jne    c010a2d5 <kprintf+0x115>
              for (; p2 < p + pad; p2++)
c010a2e3:	eb 22                	jmp    c010a307 <kprintf+0x147>
                vga_put_char (pad0 ? '0' : ' ');
c010a2e5:	83 7d e4 00          	cmpl   $0x0,-0x1c(%ebp)
c010a2e9:	74 07                	je     c010a2f2 <kprintf+0x132>
c010a2eb:	b8 30 00 00 00       	mov    $0x30,%eax
c010a2f0:	eb 05                	jmp    c010a2f7 <kprintf+0x137>
c010a2f2:	b8 20 00 00 00       	mov    $0x20,%eax
c010a2f7:	83 ec 0c             	sub    $0xc,%esp
c010a2fa:	50                   	push   %eax
c010a2fb:	e8 1e bd ff ff       	call   c010601e <vga_put_char>
c010a300:	83 c4 10             	add    $0x10,%esp
              for (; p2 < p + pad; p2++)
c010a303:	83 45 e8 01          	addl   $0x1,-0x18(%ebp)
c010a307:	8b 55 e0             	mov    -0x20(%ebp),%edx
c010a30a:	8b 45 ec             	mov    -0x14(%ebp),%eax
c010a30d:	01 d0                	add    %edx,%eax
c010a30f:	39 45 e8             	cmp    %eax,-0x18(%ebp)
c010a312:	72 d1                	jb     c010a2e5 <kprintf+0x125>
              while (*p)
c010a314:	eb 1b                	jmp    c010a331 <kprintf+0x171>
                vga_put_char (*p++);
c010a316:	8b 45 ec             	mov    -0x14(%ebp),%eax
c010a319:	8d 50 01             	lea    0x1(%eax),%edx
c010a31c:	89 55 ec             	mov    %edx,-0x14(%ebp)
c010a31f:	0f b6 00             	movzbl (%eax),%eax
c010a322:	0f be c0             	movsbl %al,%eax
c010a325:	83 ec 0c             	sub    $0xc,%esp
c010a328:	50                   	push   %eax
c010a329:	e8 f0 bc ff ff       	call   c010601e <vga_put_char>
c010a32e:	83 c4 10             	add    $0x10,%esp
              while (*p)
c010a331:	8b 45 ec             	mov    -0x14(%ebp),%eax
c010a334:	0f b6 00             	movzbl (%eax),%eax
c010a337:	84 c0                	test   %al,%al
c010a339:	75 db                	jne    c010a316 <kprintf+0x156>
              break;
c010a33b:	eb 1b                	jmp    c010a358 <kprintf+0x198>

            default:
              vga_put_char (*((int *) arg++));
c010a33d:	8b 45 f4             	mov    -0xc(%ebp),%eax
c010a340:	8d 50 04             	lea    0x4(%eax),%edx
c010a343:	89 55 f4             	mov    %edx,-0xc(%ebp)
c010a346:	8b 00                	mov    (%eax),%eax
c010a348:	0f be c0             	movsbl %al,%eax
c010a34b:	83 ec 0c             	sub    $0xc,%esp
c010a34e:	50                   	push   %eax
c010a34f:	e8 ca bc ff ff       	call   c010601e <vga_put_char>
c010a354:	83 c4 10             	add    $0x10,%esp
              break;
c010a357:	90                   	nop
  while ((c = *format++) != 0)
c010a358:	8b 45 08             	mov    0x8(%ebp),%eax
c010a35b:	8d 50 01             	lea    0x1(%eax),%edx
c010a35e:	89 55 08             	mov    %edx,0x8(%ebp)
c010a361:	0f b6 00             	movzbl (%eax),%eax
c010a364:	0f be c0             	movsbl %al,%eax
c010a367:	89 45 f0             	mov    %eax,-0x10(%ebp)
c010a36a:	83 7d f0 00          	cmpl   $0x0,-0x10(%ebp)
c010a36e:	0f 85 61 fe ff ff    	jne    c010a1d5 <kprintf+0x15>
            }
        }
    }
}
c010a374:	90                   	nop
c010a375:	90                   	nop
c010a376:	c9                   	leave  
c010a377:	c3                   	ret    

c010a378 <itoa>:
#include <libs/mstdlib.h>

void
itoa (char *buf, int base, int d)
{
c010a378:	55                   	push   %ebp
c010a379:	89 e5                	mov    %esp,%ebp
c010a37b:	83 ec 20             	sub    $0x20,%esp
  char *p = buf;
c010a37e:	8b 45 08             	mov    0x8(%ebp),%eax
c010a381:	89 45 fc             	mov    %eax,-0x4(%ebp)
  char *p1, *p2;
  unsigned long ud = d;
c010a384:	8b 45 10             	mov    0x10(%ebp),%eax
c010a387:	89 45 f0             	mov    %eax,-0x10(%ebp)
  int divisor = 10;
c010a38a:	c7 45 ec 0a 00 00 00 	movl   $0xa,-0x14(%ebp)
  
  /* If %d is specified and D is minus, put ‘-’ in the head. */
  if (base == 'd' && d < 0)
c010a391:	83 7d 0c 64          	cmpl   $0x64,0xc(%ebp)
c010a395:	75 20                	jne    c010a3b7 <itoa+0x3f>
c010a397:	83 7d 10 00          	cmpl   $0x0,0x10(%ebp)
c010a39b:	79 1a                	jns    c010a3b7 <itoa+0x3f>
    {
      *p++ = '-';
c010a39d:	8b 45 fc             	mov    -0x4(%ebp),%eax
c010a3a0:	8d 50 01             	lea    0x1(%eax),%edx
c010a3a3:	89 55 fc             	mov    %edx,-0x4(%ebp)
c010a3a6:	c6 00 2d             	movb   $0x2d,(%eax)
      buf++;
c010a3a9:	83 45 08 01          	addl   $0x1,0x8(%ebp)
      ud = -d;
c010a3ad:	8b 45 10             	mov    0x10(%ebp),%eax
c010a3b0:	f7 d8                	neg    %eax
c010a3b2:	89 45 f0             	mov    %eax,-0x10(%ebp)
c010a3b5:	eb 0d                	jmp    c010a3c4 <itoa+0x4c>
    }
  else if (base == 'x')
c010a3b7:	83 7d 0c 78          	cmpl   $0x78,0xc(%ebp)
c010a3bb:	75 07                	jne    c010a3c4 <itoa+0x4c>
    divisor = 16;
c010a3bd:	c7 45 ec 10 00 00 00 	movl   $0x10,-0x14(%ebp)

  /* Divide UD by DIVISOR until UD == 0. */
  do
    {
      int remainder = ud % divisor;
c010a3c4:	8b 4d ec             	mov    -0x14(%ebp),%ecx
c010a3c7:	8b 45 f0             	mov    -0x10(%ebp),%eax
c010a3ca:	ba 00 00 00 00       	mov    $0x0,%edx
c010a3cf:	f7 f1                	div    %ecx
c010a3d1:	89 d0                	mov    %edx,%eax
c010a3d3:	89 45 e8             	mov    %eax,-0x18(%ebp)
      
      *p++ = (remainder < 10) ? remainder + '0' : remainder + 'a' - 10;
c010a3d6:	83 7d e8 09          	cmpl   $0x9,-0x18(%ebp)
c010a3da:	7f 0a                	jg     c010a3e6 <itoa+0x6e>
c010a3dc:	8b 45 e8             	mov    -0x18(%ebp),%eax
c010a3df:	83 c0 30             	add    $0x30,%eax
c010a3e2:	89 c1                	mov    %eax,%ecx
c010a3e4:	eb 08                	jmp    c010a3ee <itoa+0x76>
c010a3e6:	8b 45 e8             	mov    -0x18(%ebp),%eax
c010a3e9:	83 c0 57             	add    $0x57,%eax
c010a3ec:	89 c1                	mov    %eax,%ecx
c010a3ee:	8b 45 fc             	mov    -0x4(%ebp),%eax
c010a3f1:	8d 50 01             	lea    0x1(%eax),%edx
c010a3f4:	89 55 fc             	mov    %edx,-0x4(%ebp)
c010a3f7:	88 08                	mov    %cl,(%eax)
    }
  while (ud /= divisor);
c010a3f9:	8b 4d ec             	mov    -0x14(%ebp),%ecx
c010a3fc:	8b 45 f0             	mov    -0x10(%ebp),%eax
c010a3ff:	ba 00 00 00 00       	mov    $0x0,%edx
c010a404:	f7 f1                	div    %ecx
c010a406:	89 45 f0             	mov    %eax,-0x10(%ebp)
c010a409:	83 7d f0 00          	cmpl   $0x0,-0x10(%ebp)
c010a40d:	75 b5                	jne    c010a3c4 <itoa+0x4c>

  /* Terminate BUF. */
  *p = 0;
c010a40f:	8b 45 fc             	mov    -0x4(%ebp),%eax
c010a412:	c6 00 00             	movb   $0x0,(%eax)
  
  /* Reverse BUF. */
  p1 = buf;
c010a415:	8b 45 08             	mov    0x8(%ebp),%eax
c010a418:	89 45 f8             	mov    %eax,-0x8(%ebp)
  p2 = p - 1;
c010a41b:	8b 45 fc             	mov    -0x4(%ebp),%eax
c010a41e:	83 e8 01             	sub    $0x1,%eax
c010a421:	89 45 f4             	mov    %eax,-0xc(%ebp)
  while (p1 < p2)
c010a424:	eb 25                	jmp    c010a44b <itoa+0xd3>
    {
      char tmp = *p1;
c010a426:	8b 45 f8             	mov    -0x8(%ebp),%eax
c010a429:	0f b6 00             	movzbl (%eax),%eax
c010a42c:	88 45 e7             	mov    %al,-0x19(%ebp)
      *p1 = *p2;
c010a42f:	8b 45 f4             	mov    -0xc(%ebp),%eax
c010a432:	0f b6 10             	movzbl (%eax),%edx
c010a435:	8b 45 f8             	mov    -0x8(%ebp),%eax
c010a438:	88 10                	mov    %dl,(%eax)
      *p2 = tmp;
c010a43a:	8b 45 f4             	mov    -0xc(%ebp),%eax
c010a43d:	0f b6 55 e7          	movzbl -0x19(%ebp),%edx
c010a441:	88 10                	mov    %dl,(%eax)
      p1++;
c010a443:	83 45 f8 01          	addl   $0x1,-0x8(%ebp)
      p2--;
c010a447:	83 6d f4 01          	subl   $0x1,-0xc(%ebp)
  while (p1 < p2)
c010a44b:	8b 45 f8             	mov    -0x8(%ebp),%eax
c010a44e:	3b 45 f4             	cmp    -0xc(%ebp),%eax
c010a451:	72 d3                	jb     c010a426 <itoa+0xae>
    }
c010a453:	90                   	nop
c010a454:	90                   	nop
c010a455:	c9                   	leave  
c010a456:	c3                   	ret    

c010a457 <memset>:
#include <libs/mstring.h>
#include <stdint.h>

void* memset(void* ptr, int value, size_t num)
{
c010a457:	55                   	push   %ebp
c010a458:	89 e5                	mov    %esp,%ebp
c010a45a:	83 ec 10             	sub    $0x10,%esp
    uint8_t* c_ptr = (uint8_t*)ptr;
c010a45d:	8b 45 08             	mov    0x8(%ebp),%eax
c010a460:	89 45 f8             	mov    %eax,-0x8(%ebp)
    for (size_t i = 0; i < num; i++) {
c010a463:	c7 45 fc 00 00 00 00 	movl   $0x0,-0x4(%ebp)
c010a46a:	eb 11                	jmp    c010a47d <memset+0x26>
        *(c_ptr + i) = (uint8_t)value;
c010a46c:	8b 55 f8             	mov    -0x8(%ebp),%edx
c010a46f:	8b 45 fc             	mov    -0x4(%ebp),%eax
c010a472:	01 d0                	add    %edx,%eax
c010a474:	8b 55 0c             	mov    0xc(%ebp),%edx
c010a477:	88 10                	mov    %dl,(%eax)
    for (size_t i = 0; i < num; i++) {
c010a479:	83 45 fc 01          	addl   $0x1,-0x4(%ebp)
c010a47d:	8b 45 fc             	mov    -0x4(%ebp),%eax
c010a480:	3b 45 10             	cmp    0x10(%ebp),%eax
c010a483:	72 e7                	jb     c010a46c <memset+0x15>
    }
    return ptr;
c010a485:	8b 45 08             	mov    0x8(%ebp),%eax
c010a488:	c9                   	leave  
c010a489:	c3                   	ret    
